GAS LISTING /tmp/cc8t6dH2.s 			page 1


   1              		.file	"MemoryAllocatorTest1.cpp"
   2              		.option pic
   3              		.option norelax
   4              		.text
   5              	.Ltext0:
   6              		.section	.rodata.str1.8,"aMS",@progbits,1
   7              		.align	3
   8              	.LC0:
   9 0000 4E657573 		.string	"Neuspesna alokacija! \n"
   9      7065736E 
   9      6120616C 
   9      6F6B6163 
   9      696A6121 
  10 0017 00       		.align	3
  11              	.LC1:
  12 0018 4E657573 		.string	"Neuspesno brisanje! \n"
  12      7065736E 
  12      6F206272 
  12      6973616E 
  12      6A652120 
  13 002e 0000     		.align	3
  14              	.LC2:
  15 0030 55737065 		.string	"Uspesno brisanje! \n"
  15      736E6F20 
  15      62726973 
  15      616E6A65 
  15      21200A00 
  16              		.text
  17              		.align	2
  18              		.globl	_Z27test_memory_allocator_arrayv
  20              	_Z27test_memory_allocator_arrayv:
  21              	.LFB6:
  22              		.file 1 "src/tests/MemoryAllocatorTest1.cpp"
   1:src/tests/MemoryAllocatorTest1.cpp **** #include "../../h/MemoryAllocator.hpp"
   2:src/tests/MemoryAllocatorTest1.cpp **** #include "../../lib/console.h"
   3:src/tests/MemoryAllocatorTest1.cpp **** 
   4:src/tests/MemoryAllocatorTest1.cpp **** void test_memory_allocator_array()
   5:src/tests/MemoryAllocatorTest1.cpp **** {
  23              		.loc 1 5 1
  24              		.cfi_startproc
  25 0000 130101FE 		addi	sp,sp,-32
  26              		.cfi_def_cfa_offset 32
  27 0004 233C1100 		sd	ra,24(sp)
  28 0008 23388100 		sd	s0,16(sp)
  29 000c 23349100 		sd	s1,8(sp)
  30 0010 23302101 		sd	s2,0(sp)
  31              		.cfi_offset 1, -8
  32              		.cfi_offset 8, -16
  33              		.cfi_offset 9, -24
  34              		.cfi_offset 18, -32
  35 0014 13040102 		addi	s0,sp,32
  36              		.cfi_def_cfa 8, 0
   6:src/tests/MemoryAllocatorTest1.cpp ****     int n = 10;
  37              		.loc 1 6 5
  38              	.LVL0:
   7:src/tests/MemoryAllocatorTest1.cpp ****     char* niz = (char*)MemoryAllocator::mem_alloc(n* sizeof(char));
  39              		.loc 1 7 5
GAS LISTING /tmp/cc8t6dH2.s 			page 2


  40              		.loc 1 7 50 is_stmt 0
  41 0018 1305A000 		li	a0,10
  42 001c 97000000 		call	_ZN15MemoryAllocator9mem_allocEm@plt
  42      E7800000 
  43              	.LVL1:
  44 0024 13090500 		mv	s2,a0
  45              	.LVL2:
   8:src/tests/MemoryAllocatorTest1.cpp ****     if(niz == nullptr)
  46              		.loc 1 8 5 is_stmt 1
  47 0028 63020502 		beqz	a0,.L10
  48              	.LVL3:
  49              	.L2:
   5:src/tests/MemoryAllocatorTest1.cpp ****     int n = 10;
  50              		.loc 1 5 1 is_stmt 0 discriminator 3
  51 002c 93070000 		li	a5,0
  52              	.L4:
  53              	.LVL4:
  54              	.LBB2:
   9:src/tests/MemoryAllocatorTest1.cpp ****         MemoryAllocator::printString("Neuspesna alokacija! \n");
  10:src/tests/MemoryAllocatorTest1.cpp **** 
  11:src/tests/MemoryAllocatorTest1.cpp ****     for(int i=0;i<n;i++)
  55              		.loc 1 11 18 is_stmt 1 discriminator 3
  56 0030 13079000 		li	a4,9
  57 0034 6346F702 		bgt	a5,a4,.L8
  12:src/tests/MemoryAllocatorTest1.cpp ****         niz[i] = 'd';
  58              		.loc 1 12 9 discriminator 2
  59              		.loc 1 12 14 is_stmt 0 discriminator 2
  60 0038 3307F900 		add	a4,s2,a5
  61              		.loc 1 12 16 discriminator 2
  62 003c 93064006 		li	a3,100
  63 0040 2300D700 		sb	a3,0(a4)
  11:src/tests/MemoryAllocatorTest1.cpp ****         niz[i] = 'd';
  64              		.loc 1 11 5 is_stmt 1 discriminator 2
  65 0044 9B871700 		addiw	a5,a5,1
  66              	.LVL5:
  67 0048 6FF09FFE 		j	.L4
  68              	.LVL6:
  69              	.L10:
  70              	.LBE2:
   9:src/tests/MemoryAllocatorTest1.cpp ****         MemoryAllocator::printString("Neuspesna alokacija! \n");
  71              		.loc 1 9 9
   9:src/tests/MemoryAllocatorTest1.cpp ****         MemoryAllocator::printString("Neuspesna alokacija! \n");
  72              		.loc 1 9 37 is_stmt 0
  73 004c 17050000 		lla	a0,.LC0
  73      13050500 
  74              	.LVL7:
  75 0054 97000000 		call	_ZN15MemoryAllocator11printStringEPKc@plt
  75      E7800000 
  76              	.LVL8:
  77 005c 6FF01FFD 		j	.L2
  78              	.LVL9:
  79              	.L8:
  80              	.LBB3:
  13:src/tests/MemoryAllocatorTest1.cpp **** 
  14:src/tests/MemoryAllocatorTest1.cpp ****     for(int i = 0; i < n; i++){
  81              		.loc 1 14 13
  82 0060 93040000 		li	s1,0
GAS LISTING /tmp/cc8t6dH2.s 			page 3


  83              	.LVL10:
  84              	.L3:
  85              		.loc 1 14 22 is_stmt 1 discriminator 3
  86 0064 93079000 		li	a5,9
  87 0068 63C49702 		bgt	s1,a5,.L5
  15:src/tests/MemoryAllocatorTest1.cpp ****         __putc(niz[i]);
  88              		.loc 1 15 9 discriminator 2
  89              		.loc 1 15 21 is_stmt 0 discriminator 2
  90 006c B3079900 		add	a5,s2,s1
  91              		.loc 1 15 15 discriminator 2
  92 0070 03C50700 		lbu	a0,0(a5)
  93 0074 97000000 		call	__putc@plt
  93      E7800000 
  94              	.LVL11:
  16:src/tests/MemoryAllocatorTest1.cpp ****         __putc(' ');
  95              		.loc 1 16 9 is_stmt 1 discriminator 2
  96              		.loc 1 16 15 is_stmt 0 discriminator 2
  97 007c 13050002 		li	a0,32
  98 0080 97000000 		call	__putc@plt
  98      E7800000 
  99              	.LVL12:
  14:src/tests/MemoryAllocatorTest1.cpp ****         __putc(niz[i]);
 100              		.loc 1 14 5 is_stmt 1 discriminator 2
 101 0088 9B841400 		addiw	s1,s1,1
 102              	.LVL13:
 103 008c 6FF09FFD 		j	.L3
 104              	.LVL14:
 105              	.L5:
 106              	.LBE3:
  17:src/tests/MemoryAllocatorTest1.cpp ****     }
  18:src/tests/MemoryAllocatorTest1.cpp **** 
  19:src/tests/MemoryAllocatorTest1.cpp ****     __putc('\n');
 107              		.loc 1 19 5
 108              		.loc 1 19 11 is_stmt 0
 109 0090 1305A000 		li	a0,10
 110 0094 97000000 		call	__putc@plt
 110      E7800000 
 111              	.LVL15:
  20:src/tests/MemoryAllocatorTest1.cpp ****     int status = MemoryAllocator::mem_free(niz);
 112              		.loc 1 20 5 is_stmt 1
 113              		.loc 1 20 43 is_stmt 0
 114 009c 13050900 		mv	a0,s2
 115 00a0 97000000 		call	_ZN15MemoryAllocator8mem_freeEPv@plt
 115      E7800000 
 116              	.LVL16:
  21:src/tests/MemoryAllocatorTest1.cpp ****     if(status != 0)
 117              		.loc 1 21 5 is_stmt 1
 118 00a8 63060502 		beqz	a0,.L6
  22:src/tests/MemoryAllocatorTest1.cpp ****         MemoryAllocator::printString("Neuspesno brisanje! \n");
 119              		.loc 1 22 9
 120              		.loc 1 22 37 is_stmt 0
 121 00ac 17050000 		lla	a0,.LC1
 121      13050500 
 122              	.LVL17:
 123 00b4 97000000 		call	_ZN15MemoryAllocator11printStringEPKc@plt
 123      E7800000 
 124              	.LVL18:
GAS LISTING /tmp/cc8t6dH2.s 			page 4


 125              	.L1:
  23:src/tests/MemoryAllocatorTest1.cpp ****     else
  24:src/tests/MemoryAllocatorTest1.cpp ****         MemoryAllocator::printString("Uspesno brisanje! \n");
  25:src/tests/MemoryAllocatorTest1.cpp **** 
  26:src/tests/MemoryAllocatorTest1.cpp **** 
  27:src/tests/MemoryAllocatorTest1.cpp ****     // excpected output == >
  28:src/tests/MemoryAllocatorTest1.cpp ****     // d d d d d d d d d d
  29:src/tests/MemoryAllocatorTest1.cpp ****     // Uspesno brisanje!
  30:src/tests/MemoryAllocatorTest1.cpp **** }
 126              		.loc 1 30 1
 127 00bc 83308101 		ld	ra,24(sp)
 128              		.cfi_remember_state
 129              		.cfi_restore 1
 130 00c0 03340101 		ld	s0,16(sp)
 131              		.cfi_restore 8
 132              		.cfi_def_cfa 2, 32
 133 00c4 83348100 		ld	s1,8(sp)
 134              		.cfi_restore 9
 135              	.LVL19:
 136 00c8 03390100 		ld	s2,0(sp)
 137              		.cfi_restore 18
 138              	.LVL20:
 139 00cc 13010102 		addi	sp,sp,32
 140              		.cfi_def_cfa_offset 0
 141 00d0 67800000 		jr	ra
 142              	.LVL21:
 143              	.L6:
 144              		.cfi_restore_state
  24:src/tests/MemoryAllocatorTest1.cpp **** 
 145              		.loc 1 24 9 is_stmt 1
  24:src/tests/MemoryAllocatorTest1.cpp **** 
 146              		.loc 1 24 37 is_stmt 0
 147 00d4 17050000 		lla	a0,.LC2
 147      13050500 
 148              	.LVL22:
 149 00dc 97000000 		call	_ZN15MemoryAllocator11printStringEPKc@plt
 149      E7800000 
 150              	.LVL23:
 151              		.loc 1 30 1
 152 00e4 6FF09FFD 		j	.L1
 153              		.cfi_endproc
 154              	.LFE6:
 156              		.align	2
 157              		.globl	_Z12checkNullptrPv
 159              	_Z12checkNullptrPv:
 160              	.LFB7:
  31:src/tests/MemoryAllocatorTest1.cpp **** 
  32:src/tests/MemoryAllocatorTest1.cpp **** void checkNullptr(void* p) {
 161              		.loc 1 32 28 is_stmt 1
 162              		.cfi_startproc
 163              	.LVL24:
  33:src/tests/MemoryAllocatorTest1.cpp ****     static int x = 0;
 164              		.loc 1 33 5
  34:src/tests/MemoryAllocatorTest1.cpp ****     if(p == nullptr) {
 165              		.loc 1 34 5
 166 00e8 630E0500 		beqz	a0,.L17
  35:src/tests/MemoryAllocatorTest1.cpp ****         __putc('?');
GAS LISTING /tmp/cc8t6dH2.s 			page 5


  36:src/tests/MemoryAllocatorTest1.cpp ****         __putc('0' + x);
  37:src/tests/MemoryAllocatorTest1.cpp ****     }
  38:src/tests/MemoryAllocatorTest1.cpp ****     x++;
 167              		.loc 1 38 5
 168              		.loc 1 38 6 is_stmt 0
 169 00ec 17070000 		lla	a4,.LANCHOR0
 169      13070700 
 170 00f4 83270700 		lw	a5,0(a4)
 171 00f8 9B871700 		addiw	a5,a5,1
 172 00fc 2320F700 		sw	a5,0(a4)
 173 0100 67800000 		ret
 174              	.L17:
  32:src/tests/MemoryAllocatorTest1.cpp ****     static int x = 0;
 175              		.loc 1 32 28
 176 0104 130101FF 		addi	sp,sp,-16
 177              		.cfi_def_cfa_offset 16
 178 0108 23341100 		sd	ra,8(sp)
 179 010c 23308100 		sd	s0,0(sp)
 180              		.cfi_offset 1, -8
 181              		.cfi_offset 8, -16
 182 0110 13040101 		addi	s0,sp,16
 183              		.cfi_def_cfa 8, 0
  35:src/tests/MemoryAllocatorTest1.cpp ****         __putc('?');
 184              		.loc 1 35 9 is_stmt 1
  35:src/tests/MemoryAllocatorTest1.cpp ****         __putc('?');
 185              		.loc 1 35 15 is_stmt 0
 186 0114 1305F003 		li	a0,63
 187              	.LVL25:
 188 0118 97000000 		call	__putc@plt
 188      E7800000 
 189              	.LVL26:
  36:src/tests/MemoryAllocatorTest1.cpp ****     }
 190              		.loc 1 36 9 is_stmt 1
  36:src/tests/MemoryAllocatorTest1.cpp ****     }
 191              		.loc 1 36 15 is_stmt 0
 192 0120 17050000 		lw	a0,.LANCHOR0
 192      03250500 
 193 0128 1B050503 		addiw	a0,a0,48
 194 012c 1375F50F 		andi	a0,a0,0xff
 195 0130 97000000 		call	__putc@plt
 195      E7800000 
 196              	.LVL27:
 197              		.loc 1 38 5 is_stmt 1
 198              		.loc 1 38 6 is_stmt 0
 199 0138 17070000 		lla	a4,.LANCHOR0
 199      13070700 
 200 0140 83270700 		lw	a5,0(a4)
 201 0144 9B871700 		addiw	a5,a5,1
 202 0148 2320F700 		sw	a5,0(a4)
  39:src/tests/MemoryAllocatorTest1.cpp **** }
 203              		.loc 1 39 1
 204 014c 83308100 		ld	ra,8(sp)
 205              		.cfi_restore 1
 206 0150 03340100 		ld	s0,0(sp)
 207              		.cfi_restore 8
 208              		.cfi_def_cfa 2, 16
 209 0154 13010101 		addi	sp,sp,16
GAS LISTING /tmp/cc8t6dH2.s 			page 6


 210              		.cfi_def_cfa_offset 0
 211 0158 67800000 		jr	ra
 212              		.cfi_endproc
 213              	.LFE7:
 215              		.align	2
 216              		.globl	_Z11checkStatusi
 218              	_Z11checkStatusi:
 219              	.LFB8:
  40:src/tests/MemoryAllocatorTest1.cpp **** 
  41:src/tests/MemoryAllocatorTest1.cpp **** void checkStatus(int status) {
 220              		.loc 1 41 30 is_stmt 1
 221              		.cfi_startproc
 222              	.LVL28:
  42:src/tests/MemoryAllocatorTest1.cpp ****     static int y = 0;
 223              		.loc 1 42 5
  43:src/tests/MemoryAllocatorTest1.cpp ****     if(status) {
 224              		.loc 1 43 5
 225 015c 631E0500 		bnez	a0,.L24
  44:src/tests/MemoryAllocatorTest1.cpp ****         __putc('0' + y);
  45:src/tests/MemoryAllocatorTest1.cpp ****         __putc('?');
  46:src/tests/MemoryAllocatorTest1.cpp ****     }
  47:src/tests/MemoryAllocatorTest1.cpp ****     y++;
 226              		.loc 1 47 5
 227              		.loc 1 47 6 is_stmt 0
 228 0160 17070000 		lla	a4,.LANCHOR0
 228      13070700 
 229 0168 83274700 		lw	a5,4(a4)
 230 016c 9B871700 		addiw	a5,a5,1
 231 0170 2322F700 		sw	a5,4(a4)
 232 0174 67800000 		ret
 233              	.L24:
  41:src/tests/MemoryAllocatorTest1.cpp ****     static int y = 0;
 234              		.loc 1 41 30
 235 0178 130101FF 		addi	sp,sp,-16
 236              		.cfi_def_cfa_offset 16
 237 017c 23341100 		sd	ra,8(sp)
 238 0180 23308100 		sd	s0,0(sp)
 239              		.cfi_offset 1, -8
 240              		.cfi_offset 8, -16
 241 0184 13040101 		addi	s0,sp,16
 242              		.cfi_def_cfa 8, 0
  44:src/tests/MemoryAllocatorTest1.cpp ****         __putc('0' + y);
 243              		.loc 1 44 9 is_stmt 1
  44:src/tests/MemoryAllocatorTest1.cpp ****         __putc('0' + y);
 244              		.loc 1 44 15 is_stmt 0
 245 0188 17050000 		lw	a0,.LANCHOR0+4
 245      03250500 
 246              	.LVL29:
 247 0190 1B050503 		addiw	a0,a0,48
 248 0194 1375F50F 		andi	a0,a0,0xff
 249 0198 97000000 		call	__putc@plt
 249      E7800000 
 250              	.LVL30:
  45:src/tests/MemoryAllocatorTest1.cpp ****     }
 251              		.loc 1 45 9 is_stmt 1
  45:src/tests/MemoryAllocatorTest1.cpp ****     }
 252              		.loc 1 45 15 is_stmt 0
GAS LISTING /tmp/cc8t6dH2.s 			page 7


 253 01a0 1305F003 		li	a0,63
 254 01a4 97000000 		call	__putc@plt
 254      E7800000 
 255              	.LVL31:
 256              		.loc 1 47 5 is_stmt 1
 257              		.loc 1 47 6 is_stmt 0
 258 01ac 17070000 		lla	a4,.LANCHOR0
 258      13070700 
 259 01b4 83274700 		lw	a5,4(a4)
 260 01b8 9B871700 		addiw	a5,a5,1
 261 01bc 2322F700 		sw	a5,4(a4)
  48:src/tests/MemoryAllocatorTest1.cpp **** }
 262              		.loc 1 48 1
 263 01c0 83308100 		ld	ra,8(sp)
 264              		.cfi_restore 1
 265 01c4 03340100 		ld	s0,0(sp)
 266              		.cfi_restore 8
 267              		.cfi_def_cfa 2, 16
 268 01c8 13010101 		addi	sp,sp,16
 269              		.cfi_def_cfa_offset 0
 270 01cc 67800000 		jr	ra
 271              		.cfi_endproc
 272              	.LFE8:
 274              		.section	.rodata.str1.8
 275 0044 00000000 		.align	3
 276              	.LC3:
 277 0048 4E657570 		.string	"Neupseno brisanje! \n"
 277      73656E6F 
 277      20627269 
 277      73616E6A 
 277      6521200A 
 278              		.text
 279              		.align	2
 280              		.globl	_Z28test_memory_allocator_matrixv
 282              	_Z28test_memory_allocator_matrixv:
 283              	.LFB9:
  49:src/tests/MemoryAllocatorTest1.cpp **** 
  50:src/tests/MemoryAllocatorTest1.cpp **** void test_memory_allocator_matrix() {
 284              		.loc 1 50 37 is_stmt 1
 285              		.cfi_startproc
 286 01d0 130101FD 		addi	sp,sp,-48
 287              		.cfi_def_cfa_offset 48
 288 01d4 23341102 		sd	ra,40(sp)
 289 01d8 23308102 		sd	s0,32(sp)
 290 01dc 233C9100 		sd	s1,24(sp)
 291 01e0 23382101 		sd	s2,16(sp)
 292 01e4 23343101 		sd	s3,8(sp)
 293              		.cfi_offset 1, -8
 294              		.cfi_offset 8, -16
 295              		.cfi_offset 9, -24
 296              		.cfi_offset 18, -32
 297              		.cfi_offset 19, -40
 298 01e8 13040103 		addi	s0,sp,48
 299              		.cfi_def_cfa 8, 0
  51:src/tests/MemoryAllocatorTest1.cpp ****     int n = 16;
 300              		.loc 1 51 5
 301              	.LVL32:
GAS LISTING /tmp/cc8t6dH2.s 			page 8


  52:src/tests/MemoryAllocatorTest1.cpp ****     char** matrix = (char**)MemoryAllocator::mem_alloc(n*sizeof(char*));
 302              		.loc 1 52 5
 303              		.loc 1 52 55 is_stmt 0
 304 01ec 13050008 		li	a0,128
 305 01f0 97000000 		call	_ZN15MemoryAllocator9mem_allocEm@plt
 305      E7800000 
 306              	.LVL33:
 307 01f8 13090500 		mv	s2,a0
 308              	.LVL34:
  53:src/tests/MemoryAllocatorTest1.cpp ****     checkNullptr(matrix);
 309              		.loc 1 53 5 is_stmt 1
 310              		.loc 1 53 17 is_stmt 0
 311 01fc 97000000 		call	_Z12checkNullptrPv
 311      E7800000 
 312              	.LVL35:
  54:src/tests/MemoryAllocatorTest1.cpp ****     for(int i = 0; i < n; i++) {
 313              		.loc 1 54 5 is_stmt 1
 314              	.LBB4:
 315              		.loc 1 54 13 is_stmt 0
 316 0204 93040000 		li	s1,0
 317              	.LVL36:
 318              	.L27:
 319              		.loc 1 54 22 is_stmt 1 discriminator 3
 320 0208 9307F000 		li	a5,15
 321 020c 63C69702 		bgt	s1,a5,.L37
  55:src/tests/MemoryAllocatorTest1.cpp ****         matrix[i] = (char *) MemoryAllocator::mem_alloc(n * sizeof(char));
 322              		.loc 1 55 9 discriminator 2
 323              		.loc 1 55 17 is_stmt 0 discriminator 2
 324 0210 93993400 		slli	s3,s1,3
 325 0214 B3093901 		add	s3,s2,s3
 326              		.loc 1 55 56 discriminator 2
 327 0218 13050001 		li	a0,16
 328 021c 97000000 		call	_ZN15MemoryAllocator9mem_allocEm@plt
 328      E7800000 
 329              	.LVL37:
 330              		.loc 1 55 19 discriminator 2
 331 0224 23B0A900 		sd	a0,0(s3)
  56:src/tests/MemoryAllocatorTest1.cpp ****         checkNullptr(matrix[i]);
 332              		.loc 1 56 9 is_stmt 1 discriminator 2
 333              		.loc 1 56 21 is_stmt 0 discriminator 2
 334 0228 97000000 		call	_Z12checkNullptrPv
 334      E7800000 
 335              	.LVL38:
  54:src/tests/MemoryAllocatorTest1.cpp ****     for(int i = 0; i < n; i++) {
 336              		.loc 1 54 5 is_stmt 1 discriminator 2
 337 0230 9B841400 		addiw	s1,s1,1
 338              	.LVL39:
 339 0234 6FF05FFD 		j	.L27
 340              	.LVL40:
 341              	.L37:
 342              	.LBE4:
 343              	.LBB5:
  57:src/tests/MemoryAllocatorTest1.cpp ****     }
  58:src/tests/MemoryAllocatorTest1.cpp **** 
  59:src/tests/MemoryAllocatorTest1.cpp ****     for(int i = 0; i < n; i++) {
 344              		.loc 1 59 13 is_stmt 0
 345 0238 13060000 		li	a2,0
GAS LISTING /tmp/cc8t6dH2.s 			page 9


 346 023c 6F008000 		j	.L26
 347              	.LVL41:
 348              	.L29:
 349              		.loc 1 59 5 is_stmt 1 discriminator 2
 350 0240 1B061600 		addiw	a2,a2,1
 351              	.LVL42:
 352              	.L26:
 353              		.loc 1 59 22 discriminator 1
 354 0244 9307F000 		li	a5,15
 355 0248 63C8C702 		bgt	a2,a5,.L38
 356              	.LBB6:
  60:src/tests/MemoryAllocatorTest1.cpp ****         for(int j = 0; j < n; j++) {
 357              		.loc 1 60 17 is_stmt 0
 358 024c 93070000 		li	a5,0
 359              	.L30:
 360              	.LVL43:
 361              		.loc 1 60 26 is_stmt 1 discriminator 3
 362 0250 1307F000 		li	a4,15
 363 0254 E346F7FE 		bgt	a5,a4,.L29
  61:src/tests/MemoryAllocatorTest1.cpp ****             matrix[i][j] = 'k';
 364              		.loc 1 61 13 discriminator 2
 365              		.loc 1 61 21 is_stmt 0 discriminator 2
 366 0258 13173600 		slli	a4,a2,3
 367 025c 3307E900 		add	a4,s2,a4
 368 0260 03370700 		ld	a4,0(a4)
 369              		.loc 1 61 24 discriminator 2
 370 0264 3307F700 		add	a4,a4,a5
 371              		.loc 1 61 26 discriminator 2
 372 0268 9306B006 		li	a3,107
 373 026c 2300D700 		sb	a3,0(a4)
  60:src/tests/MemoryAllocatorTest1.cpp ****         for(int j = 0; j < n; j++) {
 374              		.loc 1 60 9 is_stmt 1 discriminator 2
 375 0270 9B871700 		addiw	a5,a5,1
 376              	.LVL44:
 377 0274 6FF0DFFD 		j	.L30
 378              	.L38:
 379              	.LBE6:
 380              	.LBE5:
 381              	.LBB7:
  62:src/tests/MemoryAllocatorTest1.cpp ****         }
  63:src/tests/MemoryAllocatorTest1.cpp ****     }
  64:src/tests/MemoryAllocatorTest1.cpp **** 
  65:src/tests/MemoryAllocatorTest1.cpp ****     for(int i = 0; i < n; i++) {
 382              		.loc 1 65 13 is_stmt 0
 383 0278 93090000 		li	s3,0
 384 027c 6F004001 		j	.L28
 385              	.LVL45:
 386              	.L32:
 387              	.LBB8:
  66:src/tests/MemoryAllocatorTest1.cpp ****         for(int j = 0; j < n; j++) {
  67:src/tests/MemoryAllocatorTest1.cpp ****             __putc(matrix[i][j]);
  68:src/tests/MemoryAllocatorTest1.cpp ****             __putc(' ');
  69:src/tests/MemoryAllocatorTest1.cpp ****         }
  70:src/tests/MemoryAllocatorTest1.cpp ****         __putc('\n');
 388              		.loc 1 70 9 is_stmt 1 discriminator 2
 389              		.loc 1 70 15 is_stmt 0 discriminator 2
 390 0280 1305A000 		li	a0,10
GAS LISTING /tmp/cc8t6dH2.s 			page 10


 391 0284 97000000 		call	__putc@plt
 391      E7800000 
 392              	.LVL46:
 393              	.LBE8:
  65:src/tests/MemoryAllocatorTest1.cpp ****         for(int j = 0; j < n; j++) {
 394              		.loc 1 65 5 is_stmt 1 discriminator 2
 395 028c 9B891900 		addiw	s3,s3,1
 396              	.LVL47:
 397              	.L28:
  65:src/tests/MemoryAllocatorTest1.cpp ****         for(int j = 0; j < n; j++) {
 398              		.loc 1 65 22 discriminator 1
 399 0290 9307F000 		li	a5,15
 400 0294 63C03705 		bgt	s3,a5,.L39
 401              	.LBB10:
 402              	.LBB9:
  66:src/tests/MemoryAllocatorTest1.cpp ****         for(int j = 0; j < n; j++) {
 403              		.loc 1 66 17 is_stmt 0
 404 0298 93040000 		li	s1,0
 405              	.L33:
 406              	.LVL48:
  66:src/tests/MemoryAllocatorTest1.cpp ****         for(int j = 0; j < n; j++) {
 407              		.loc 1 66 26 is_stmt 1 discriminator 3
 408 029c 9307F000 		li	a5,15
 409 02a0 E3C097FE 		bgt	s1,a5,.L32
  67:src/tests/MemoryAllocatorTest1.cpp ****             __putc(' ');
 410              		.loc 1 67 13 discriminator 2
  67:src/tests/MemoryAllocatorTest1.cpp ****             __putc(' ');
 411              		.loc 1 67 28 is_stmt 0 discriminator 2
 412 02a4 93973900 		slli	a5,s3,3
 413 02a8 B307F900 		add	a5,s2,a5
 414 02ac 83B70700 		ld	a5,0(a5)
  67:src/tests/MemoryAllocatorTest1.cpp ****             __putc(' ');
 415              		.loc 1 67 31 discriminator 2
 416 02b0 B3879700 		add	a5,a5,s1
  67:src/tests/MemoryAllocatorTest1.cpp ****             __putc(' ');
 417              		.loc 1 67 19 discriminator 2
 418 02b4 03C50700 		lbu	a0,0(a5)
 419 02b8 97000000 		call	__putc@plt
 419      E7800000 
 420              	.LVL49:
  68:src/tests/MemoryAllocatorTest1.cpp ****         }
 421              		.loc 1 68 13 is_stmt 1 discriminator 2
  68:src/tests/MemoryAllocatorTest1.cpp ****         }
 422              		.loc 1 68 19 is_stmt 0 discriminator 2
 423 02c0 13050002 		li	a0,32
 424 02c4 97000000 		call	__putc@plt
 424      E7800000 
 425              	.LVL50:
  66:src/tests/MemoryAllocatorTest1.cpp ****             __putc(matrix[i][j]);
 426              		.loc 1 66 9 is_stmt 1 discriminator 2
 427 02cc 9B841400 		addiw	s1,s1,1
 428              	.LVL51:
 429 02d0 6FF0DFFC 		j	.L33
 430              	.L39:
 431              	.LBE9:
 432              	.LBE10:
 433              	.LBE7:
GAS LISTING /tmp/cc8t6dH2.s 			page 11


 434              	.LBB11:
  71:src/tests/MemoryAllocatorTest1.cpp ****     }
  72:src/tests/MemoryAllocatorTest1.cpp **** 
  73:src/tests/MemoryAllocatorTest1.cpp **** 
  74:src/tests/MemoryAllocatorTest1.cpp ****     for(int i = 0; i < n; i++) {
 435              		.loc 1 74 13 is_stmt 0
 436 02d4 93090000 		li	s3,0
 437              	.LVL52:
 438 02d8 6F004001 		j	.L31
 439              	.LVL53:
 440              	.L35:
 441              	.LBB12:
  75:src/tests/MemoryAllocatorTest1.cpp ****         int status = MemoryAllocator::mem_free(matrix[i]);
  76:src/tests/MemoryAllocatorTest1.cpp ****         if(status != 0)
  77:src/tests/MemoryAllocatorTest1.cpp ****             MemoryAllocator::printString("Neupseno brisanje! \n");
  78:src/tests/MemoryAllocatorTest1.cpp ****         checkStatus(status);
 442              		.loc 1 78 9 is_stmt 1 discriminator 2
 443              		.loc 1 78 20 is_stmt 0 discriminator 2
 444 02dc 13850400 		mv	a0,s1
 445 02e0 97000000 		call	_Z11checkStatusi
 445      E7800000 
 446              	.LVL54:
 447              	.LBE12:
  74:src/tests/MemoryAllocatorTest1.cpp ****         int status = MemoryAllocator::mem_free(matrix[i]);
 448              		.loc 1 74 5 is_stmt 1 discriminator 2
 449 02e8 9B891900 		addiw	s3,s3,1
 450              	.LVL55:
 451              	.L31:
  74:src/tests/MemoryAllocatorTest1.cpp ****         int status = MemoryAllocator::mem_free(matrix[i]);
 452              		.loc 1 74 22 discriminator 1
 453 02ec 9307F000 		li	a5,15
 454 02f0 63CA3703 		bgt	s3,a5,.L34
 455              	.LBB13:
  75:src/tests/MemoryAllocatorTest1.cpp ****         int status = MemoryAllocator::mem_free(matrix[i]);
 456              		.loc 1 75 9
  75:src/tests/MemoryAllocatorTest1.cpp ****         int status = MemoryAllocator::mem_free(matrix[i]);
 457              		.loc 1 75 56 is_stmt 0
 458 02f4 93973900 		slli	a5,s3,3
 459 02f8 B307F900 		add	a5,s2,a5
  75:src/tests/MemoryAllocatorTest1.cpp ****         int status = MemoryAllocator::mem_free(matrix[i]);
 460              		.loc 1 75 47
 461 02fc 03B50700 		ld	a0,0(a5)
 462 0300 97000000 		call	_ZN15MemoryAllocator8mem_freeEPv@plt
 462      E7800000 
 463              	.LVL56:
 464 0308 93040500 		mv	s1,a0
 465              	.LVL57:
  76:src/tests/MemoryAllocatorTest1.cpp ****             MemoryAllocator::printString("Neupseno brisanje! \n");
 466              		.loc 1 76 9 is_stmt 1
 467 030c E30805FC 		beqz	a0,.L35
  77:src/tests/MemoryAllocatorTest1.cpp ****         checkStatus(status);
 468              		.loc 1 77 13
  77:src/tests/MemoryAllocatorTest1.cpp ****         checkStatus(status);
 469              		.loc 1 77 41 is_stmt 0
 470 0310 17050000 		lla	a0,.LC3
 470      13050500 
 471              	.LVL58:
GAS LISTING /tmp/cc8t6dH2.s 			page 12


 472 0318 97000000 		call	_ZN15MemoryAllocator11printStringEPKc@plt
 472      E7800000 
 473              	.LVL59:
 474 0320 6FF0DFFB 		j	.L35
 475              	.L34:
 476              	.LBE13:
 477              	.LBE11:
  79:src/tests/MemoryAllocatorTest1.cpp ****     }
  80:src/tests/MemoryAllocatorTest1.cpp ****     int status = MemoryAllocator::mem_free(matrix);
 478              		.loc 1 80 5 is_stmt 1
 479              		.loc 1 80 43 is_stmt 0
 480 0324 13050900 		mv	a0,s2
 481 0328 97000000 		call	_ZN15MemoryAllocator8mem_freeEPv@plt
 481      E7800000 
 482              	.LVL60:
 483 0330 93040500 		mv	s1,a0
 484              	.LVL61:
  81:src/tests/MemoryAllocatorTest1.cpp ****     if(status != 0)
 485              		.loc 1 81 5 is_stmt 1
 486 0334 63160502 		bnez	a0,.L41
 487              	.LVL62:
 488              	.L36:
  82:src/tests/MemoryAllocatorTest1.cpp ****         MemoryAllocator::printString("Neupseno brisanje! \n");
  83:src/tests/MemoryAllocatorTest1.cpp ****     checkStatus(status);
 489              		.loc 1 83 5
 490              		.loc 1 83 16 is_stmt 0
 491 0338 13850400 		mv	a0,s1
 492 033c 97000000 		call	_Z11checkStatusi
 492      E7800000 
 493              	.LVL63:
  84:src/tests/MemoryAllocatorTest1.cpp **** 
  85:src/tests/MemoryAllocatorTest1.cpp ****     // matrica 16x16 popunjena sa 'k'
  86:src/tests/MemoryAllocatorTest1.cpp **** }...
 494              		.loc 1 86 1
 495 0344 83308102 		ld	ra,40(sp)
 496              		.cfi_remember_state
 497              		.cfi_restore 1
 498 0348 03340102 		ld	s0,32(sp)
 499              		.cfi_restore 8
 500              		.cfi_def_cfa 2, 48
 501 034c 83348101 		ld	s1,24(sp)
 502              		.cfi_restore 9
 503 0350 03390101 		ld	s2,16(sp)
 504              		.cfi_restore 18
 505              	.LVL64:
 506 0354 83398100 		ld	s3,8(sp)
 507              		.cfi_restore 19
 508              	.LVL65:
 509 0358 13010103 		addi	sp,sp,48
 510              		.cfi_def_cfa_offset 0
 511 035c 67800000 		jr	ra
 512              	.LVL66:
 513              	.L41:
 514              		.cfi_restore_state
  82:src/tests/MemoryAllocatorTest1.cpp ****         MemoryAllocator::printString("Neupseno brisanje! \n");
 515              		.loc 1 82 9 is_stmt 1
  82:src/tests/MemoryAllocatorTest1.cpp ****         MemoryAllocator::printString("Neupseno brisanje! \n");
GAS LISTING /tmp/cc8t6dH2.s 			page 13


 516              		.loc 1 82 37 is_stmt 0
 517 0360 17050000 		lla	a0,.LC3
 517      13050500 
 518              	.LVL67:
 519 0368 97000000 		call	_ZN15MemoryAllocator11printStringEPKc@plt
 519      E7800000 
 520              	.LVL68:
 521 0370 6FF09FFC 		j	.L36
 522              		.cfi_endproc
 523              	.LFE9:
 525              		.bss
 526              		.align	2
 527              		.set	.LANCHOR0,. + 0
 530              	_ZZ12checkNullptrPvE1x:
 531 0000 00000000 		.zero	4
 534              	_ZZ11checkStatusiE1y:
 535 0004 00000000 		.zero	4
 536              		.text
 537              	.Letext0:
 538              		.file 2 "src/tests/../../h/../lib/hw.h"
 539              		.file 3 "src/tests/../../h/MemoryAllocator.hpp"
 540              		.file 4 "src/tests/../../lib/console.h"
GAS LISTING /tmp/cc8t6dH2.s 			page 14


DEFINED SYMBOLS
                            *ABS*:0000000000000000 MemoryAllocatorTest1.cpp
     /tmp/cc8t6dH2.s:20     .text:0000000000000000 _Z27test_memory_allocator_arrayv
     /tmp/cc8t6dH2.s:24     .text:0000000000000000 .L0 
     /tmp/cc8t6dH2.s:25     .text:0000000000000000 .L0 
     /tmp/cc8t6dH2.s:26     .text:0000000000000004 .L0 
     /tmp/cc8t6dH2.s:31     .text:0000000000000014 .L0 
     /tmp/cc8t6dH2.s:32     .text:0000000000000014 .L0 
     /tmp/cc8t6dH2.s:33     .text:0000000000000014 .L0 
     /tmp/cc8t6dH2.s:34     .text:0000000000000014 .L0 
     /tmp/cc8t6dH2.s:36     .text:0000000000000018 .L0 
     /tmp/cc8t6dH2.s:39     .text:0000000000000018 .L0 
     /tmp/cc8t6dH2.s:40     .text:0000000000000018 .L0 
     /tmp/cc8t6dH2.s:41     .text:0000000000000018 .L0 
     /tmp/cc8t6dH2.s:47     .text:0000000000000028 .L0 
     /tmp/cc8t6dH2.s:51     .text:000000000000002c .L0 
     /tmp/cc8t6dH2.s:56     .text:0000000000000030 .L0 
     /tmp/cc8t6dH2.s:59     .text:0000000000000038 .L0 
     /tmp/cc8t6dH2.s:60     .text:0000000000000038 .L0 
     /tmp/cc8t6dH2.s:62     .text:000000000000003c .L0 
     /tmp/cc8t6dH2.s:65     .text:0000000000000044 .L0 
     /tmp/cc8t6dH2.s:72     .text:000000000000004c .L0 
     /tmp/cc8t6dH2.s:73     .text:000000000000004c .L0 
     /tmp/cc8t6dH2.s:82     .text:0000000000000060 .L0 
     /tmp/cc8t6dH2.s:86     .text:0000000000000064 .L0 
     /tmp/cc8t6dH2.s:89     .text:000000000000006c .L0 
     /tmp/cc8t6dH2.s:90     .text:000000000000006c .L0 
     /tmp/cc8t6dH2.s:92     .text:0000000000000070 .L0 
     /tmp/cc8t6dH2.s:96     .text:000000000000007c .L0 
     /tmp/cc8t6dH2.s:97     .text:000000000000007c .L0 
     /tmp/cc8t6dH2.s:101    .text:0000000000000088 .L0 
     /tmp/cc8t6dH2.s:108    .text:0000000000000090 .L0 
     /tmp/cc8t6dH2.s:109    .text:0000000000000090 .L0 
     /tmp/cc8t6dH2.s:113    .text:000000000000009c .L0 
     /tmp/cc8t6dH2.s:114    .text:000000000000009c .L0 
     /tmp/cc8t6dH2.s:118    .text:00000000000000a8 .L0 
     /tmp/cc8t6dH2.s:120    .text:00000000000000ac .L0 
     /tmp/cc8t6dH2.s:121    .text:00000000000000ac .L0 
     /tmp/cc8t6dH2.s:127    .text:00000000000000bc .L0 
     /tmp/cc8t6dH2.s:128    .text:00000000000000c0 .L0 
     /tmp/cc8t6dH2.s:129    .text:00000000000000c0 .L0 
     /tmp/cc8t6dH2.s:131    .text:00000000000000c4 .L0 
     /tmp/cc8t6dH2.s:132    .text:00000000000000c4 .L0 
     /tmp/cc8t6dH2.s:134    .text:00000000000000c8 .L0 
     /tmp/cc8t6dH2.s:137    .text:00000000000000cc .L0 
     /tmp/cc8t6dH2.s:140    .text:00000000000000d0 .L0 
     /tmp/cc8t6dH2.s:144    .text:00000000000000d4 .L0 
     /tmp/cc8t6dH2.s:146    .text:00000000000000d4 .L0 
     /tmp/cc8t6dH2.s:147    .text:00000000000000d4 .L0 
     /tmp/cc8t6dH2.s:152    .text:00000000000000e4 .L0 
     /tmp/cc8t6dH2.s:153    .text:00000000000000e8 .L0 
     /tmp/cc8t6dH2.s:159    .text:00000000000000e8 _Z12checkNullptrPv
     /tmp/cc8t6dH2.s:162    .text:00000000000000e8 .L0 
     /tmp/cc8t6dH2.s:164    .text:00000000000000e8 .L0 
     /tmp/cc8t6dH2.s:165    .text:00000000000000e8 .L0 
     /tmp/cc8t6dH2.s:166    .text:00000000000000e8 .L0 
     /tmp/cc8t6dH2.s:168    .text:00000000000000ec .L0 
GAS LISTING /tmp/cc8t6dH2.s 			page 15


     /tmp/cc8t6dH2.s:169    .text:00000000000000ec .L0 
     /tmp/cc8t6dH2.s:176    .text:0000000000000104 .L0 
     /tmp/cc8t6dH2.s:177    .text:0000000000000108 .L0 
     /tmp/cc8t6dH2.s:180    .text:0000000000000110 .L0 
     /tmp/cc8t6dH2.s:181    .text:0000000000000110 .L0 
     /tmp/cc8t6dH2.s:183    .text:0000000000000114 .L0 
     /tmp/cc8t6dH2.s:185    .text:0000000000000114 .L0 
     /tmp/cc8t6dH2.s:186    .text:0000000000000114 .L0 
     /tmp/cc8t6dH2.s:191    .text:0000000000000120 .L0 
     /tmp/cc8t6dH2.s:192    .text:0000000000000120 .L0 
     /tmp/cc8t6dH2.s:198    .text:0000000000000138 .L0 
     /tmp/cc8t6dH2.s:199    .text:0000000000000138 .L0 
     /tmp/cc8t6dH2.s:204    .text:000000000000014c .L0 
     /tmp/cc8t6dH2.s:205    .text:0000000000000150 .L0 
     /tmp/cc8t6dH2.s:207    .text:0000000000000154 .L0 
     /tmp/cc8t6dH2.s:208    .text:0000000000000154 .L0 
     /tmp/cc8t6dH2.s:210    .text:0000000000000158 .L0 
     /tmp/cc8t6dH2.s:212    .text:000000000000015c .L0 
     /tmp/cc8t6dH2.s:218    .text:000000000000015c _Z11checkStatusi
     /tmp/cc8t6dH2.s:221    .text:000000000000015c .L0 
     /tmp/cc8t6dH2.s:223    .text:000000000000015c .L0 
     /tmp/cc8t6dH2.s:224    .text:000000000000015c .L0 
     /tmp/cc8t6dH2.s:225    .text:000000000000015c .L0 
     /tmp/cc8t6dH2.s:227    .text:0000000000000160 .L0 
     /tmp/cc8t6dH2.s:228    .text:0000000000000160 .L0 
     /tmp/cc8t6dH2.s:235    .text:0000000000000178 .L0 
     /tmp/cc8t6dH2.s:236    .text:000000000000017c .L0 
     /tmp/cc8t6dH2.s:239    .text:0000000000000184 .L0 
     /tmp/cc8t6dH2.s:240    .text:0000000000000184 .L0 
     /tmp/cc8t6dH2.s:242    .text:0000000000000188 .L0 
     /tmp/cc8t6dH2.s:244    .text:0000000000000188 .L0 
     /tmp/cc8t6dH2.s:245    .text:0000000000000188 .L0 
     /tmp/cc8t6dH2.s:252    .text:00000000000001a0 .L0 
     /tmp/cc8t6dH2.s:253    .text:00000000000001a0 .L0 
     /tmp/cc8t6dH2.s:257    .text:00000000000001ac .L0 
     /tmp/cc8t6dH2.s:258    .text:00000000000001ac .L0 
     /tmp/cc8t6dH2.s:263    .text:00000000000001c0 .L0 
     /tmp/cc8t6dH2.s:264    .text:00000000000001c4 .L0 
     /tmp/cc8t6dH2.s:266    .text:00000000000001c8 .L0 
     /tmp/cc8t6dH2.s:267    .text:00000000000001c8 .L0 
     /tmp/cc8t6dH2.s:269    .text:00000000000001cc .L0 
     /tmp/cc8t6dH2.s:271    .text:00000000000001d0 .L0 
     /tmp/cc8t6dH2.s:282    .text:00000000000001d0 _Z28test_memory_allocator_matrixv
     /tmp/cc8t6dH2.s:285    .text:00000000000001d0 .L0 
     /tmp/cc8t6dH2.s:286    .text:00000000000001d0 .L0 
     /tmp/cc8t6dH2.s:287    .text:00000000000001d4 .L0 
     /tmp/cc8t6dH2.s:293    .text:00000000000001e8 .L0 
     /tmp/cc8t6dH2.s:294    .text:00000000000001e8 .L0 
     /tmp/cc8t6dH2.s:295    .text:00000000000001e8 .L0 
     /tmp/cc8t6dH2.s:296    .text:00000000000001e8 .L0 
     /tmp/cc8t6dH2.s:297    .text:00000000000001e8 .L0 
     /tmp/cc8t6dH2.s:299    .text:00000000000001ec .L0 
     /tmp/cc8t6dH2.s:302    .text:00000000000001ec .L0 
     /tmp/cc8t6dH2.s:303    .text:00000000000001ec .L0 
     /tmp/cc8t6dH2.s:304    .text:00000000000001ec .L0 
     /tmp/cc8t6dH2.s:310    .text:00000000000001fc .L0 
     /tmp/cc8t6dH2.s:311    .text:00000000000001fc .L0 
GAS LISTING /tmp/cc8t6dH2.s 			page 16


     /tmp/cc8t6dH2.s:315    .text:0000000000000204 .L0 
     /tmp/cc8t6dH2.s:316    .text:0000000000000204 .L0 
     /tmp/cc8t6dH2.s:320    .text:0000000000000208 .L0 
     /tmp/cc8t6dH2.s:323    .text:0000000000000210 .L0 
     /tmp/cc8t6dH2.s:324    .text:0000000000000210 .L0 
     /tmp/cc8t6dH2.s:327    .text:0000000000000218 .L0 
     /tmp/cc8t6dH2.s:331    .text:0000000000000224 .L0 
     /tmp/cc8t6dH2.s:333    .text:0000000000000228 .L0 
     /tmp/cc8t6dH2.s:334    .text:0000000000000228 .L0 
     /tmp/cc8t6dH2.s:337    .text:0000000000000230 .L0 
     /tmp/cc8t6dH2.s:345    .text:0000000000000238 .L0 
     /tmp/cc8t6dH2.s:350    .text:0000000000000240 .L0 
     /tmp/cc8t6dH2.s:354    .text:0000000000000244 .L0 
     /tmp/cc8t6dH2.s:358    .text:000000000000024c .L0 
     /tmp/cc8t6dH2.s:362    .text:0000000000000250 .L0 
     /tmp/cc8t6dH2.s:365    .text:0000000000000258 .L0 
     /tmp/cc8t6dH2.s:366    .text:0000000000000258 .L0 
     /tmp/cc8t6dH2.s:370    .text:0000000000000264 .L0 
     /tmp/cc8t6dH2.s:372    .text:0000000000000268 .L0 
     /tmp/cc8t6dH2.s:375    .text:0000000000000270 .L0 
     /tmp/cc8t6dH2.s:383    .text:0000000000000278 .L0 
     /tmp/cc8t6dH2.s:389    .text:0000000000000280 .L0 
     /tmp/cc8t6dH2.s:390    .text:0000000000000280 .L0 
     /tmp/cc8t6dH2.s:395    .text:000000000000028c .L0 
     /tmp/cc8t6dH2.s:399    .text:0000000000000290 .L0 
     /tmp/cc8t6dH2.s:404    .text:0000000000000298 .L0 
     /tmp/cc8t6dH2.s:408    .text:000000000000029c .L0 
     /tmp/cc8t6dH2.s:411    .text:00000000000002a4 .L0 
     /tmp/cc8t6dH2.s:412    .text:00000000000002a4 .L0 
     /tmp/cc8t6dH2.s:416    .text:00000000000002b0 .L0 
     /tmp/cc8t6dH2.s:418    .text:00000000000002b4 .L0 
     /tmp/cc8t6dH2.s:422    .text:00000000000002c0 .L0 
     /tmp/cc8t6dH2.s:423    .text:00000000000002c0 .L0 
     /tmp/cc8t6dH2.s:427    .text:00000000000002cc .L0 
     /tmp/cc8t6dH2.s:436    .text:00000000000002d4 .L0 
     /tmp/cc8t6dH2.s:443    .text:00000000000002dc .L0 
     /tmp/cc8t6dH2.s:444    .text:00000000000002dc .L0 
     /tmp/cc8t6dH2.s:449    .text:00000000000002e8 .L0 
     /tmp/cc8t6dH2.s:453    .text:00000000000002ec .L0 
     /tmp/cc8t6dH2.s:457    .text:00000000000002f4 .L0 
     /tmp/cc8t6dH2.s:458    .text:00000000000002f4 .L0 
     /tmp/cc8t6dH2.s:461    .text:00000000000002fc .L0 
     /tmp/cc8t6dH2.s:467    .text:000000000000030c .L0 
     /tmp/cc8t6dH2.s:469    .text:0000000000000310 .L0 
     /tmp/cc8t6dH2.s:470    .text:0000000000000310 .L0 
     /tmp/cc8t6dH2.s:479    .text:0000000000000324 .L0 
     /tmp/cc8t6dH2.s:480    .text:0000000000000324 .L0 
     /tmp/cc8t6dH2.s:486    .text:0000000000000334 .L0 
     /tmp/cc8t6dH2.s:490    .text:0000000000000338 .L0 
     /tmp/cc8t6dH2.s:491    .text:0000000000000338 .L0 
     /tmp/cc8t6dH2.s:495    .text:0000000000000344 .L0 
     /tmp/cc8t6dH2.s:496    .text:0000000000000348 .L0 
     /tmp/cc8t6dH2.s:497    .text:0000000000000348 .L0 
     /tmp/cc8t6dH2.s:499    .text:000000000000034c .L0 
     /tmp/cc8t6dH2.s:500    .text:000000000000034c .L0 
     /tmp/cc8t6dH2.s:502    .text:0000000000000350 .L0 
     /tmp/cc8t6dH2.s:504    .text:0000000000000354 .L0 
GAS LISTING /tmp/cc8t6dH2.s 			page 17


     /tmp/cc8t6dH2.s:507    .text:0000000000000358 .L0 
     /tmp/cc8t6dH2.s:510    .text:000000000000035c .L0 
     /tmp/cc8t6dH2.s:514    .text:0000000000000360 .L0 
     /tmp/cc8t6dH2.s:516    .text:0000000000000360 .L0 
     /tmp/cc8t6dH2.s:517    .text:0000000000000360 .L0 
     /tmp/cc8t6dH2.s:522    .text:0000000000000374 .L0 
     /tmp/cc8t6dH2.s:527    .bss:0000000000000000 .LANCHOR0
     /tmp/cc8t6dH2.s:530    .bss:0000000000000000 _ZZ12checkNullptrPvE1x
     /tmp/cc8t6dH2.s:534    .bss:0000000000000004 _ZZ11checkStatusiE1y
     /tmp/cc8t6dH2.s:541    .text:0000000000000374 .L0 
     /tmp/cc8t6dH2.s:8      .rodata.str1.8:0000000000000000 .LC0
     /tmp/cc8t6dH2.s:73     .text:000000000000004c .L0 
     /tmp/cc8t6dH2.s:11     .rodata.str1.8:0000000000000018 .LC1
     /tmp/cc8t6dH2.s:121    .text:00000000000000ac .L0 
     /tmp/cc8t6dH2.s:14     .rodata.str1.8:0000000000000030 .LC2
     /tmp/cc8t6dH2.s:147    .text:00000000000000d4 .L0 
     /tmp/cc8t6dH2.s:169    .text:00000000000000ec .L0 
     /tmp/cc8t6dH2.s:192    .text:0000000000000120 .L0 
     /tmp/cc8t6dH2.s:199    .text:0000000000000138 .L0 
     /tmp/cc8t6dH2.s:228    .text:0000000000000160 .L0 
     /tmp/cc8t6dH2.s:245    .text:0000000000000188 .L0 
     /tmp/cc8t6dH2.s:258    .text:00000000000001ac .L0 
     /tmp/cc8t6dH2.s:276    .rodata.str1.8:0000000000000048 .LC3
     /tmp/cc8t6dH2.s:470    .text:0000000000000310 .L0 
     /tmp/cc8t6dH2.s:517    .text:0000000000000360 .L0 
     /tmp/cc8t6dH2.s:69     .text:000000000000004c .L10
     /tmp/cc8t6dH2.s:79     .text:0000000000000060 .L8
     /tmp/cc8t6dH2.s:52     .text:0000000000000030 .L4
     /tmp/cc8t6dH2.s:49     .text:000000000000002c .L2
     /tmp/cc8t6dH2.s:105    .text:0000000000000090 .L5
     /tmp/cc8t6dH2.s:84     .text:0000000000000064 .L3
     /tmp/cc8t6dH2.s:143    .text:00000000000000d4 .L6
     /tmp/cc8t6dH2.s:125    .text:00000000000000bc .L1
     /tmp/cc8t6dH2.s:174    .text:0000000000000104 .L17
     /tmp/cc8t6dH2.s:233    .text:0000000000000178 .L24
     /tmp/cc8t6dH2.s:341    .text:0000000000000238 .L37
     /tmp/cc8t6dH2.s:318    .text:0000000000000208 .L27
     /tmp/cc8t6dH2.s:352    .text:0000000000000244 .L26
     /tmp/cc8t6dH2.s:378    .text:0000000000000278 .L38
     /tmp/cc8t6dH2.s:348    .text:0000000000000240 .L29
     /tmp/cc8t6dH2.s:359    .text:0000000000000250 .L30
     /tmp/cc8t6dH2.s:397    .text:0000000000000290 .L28
     /tmp/cc8t6dH2.s:430    .text:00000000000002d4 .L39
     /tmp/cc8t6dH2.s:386    .text:0000000000000280 .L32
     /tmp/cc8t6dH2.s:405    .text:000000000000029c .L33
     /tmp/cc8t6dH2.s:451    .text:00000000000002ec .L31
     /tmp/cc8t6dH2.s:475    .text:0000000000000324 .L34
     /tmp/cc8t6dH2.s:440    .text:00000000000002dc .L35
     /tmp/cc8t6dH2.s:513    .text:0000000000000360 .L41
     /tmp/cc8t6dH2.s:488    .text:0000000000000338 .L36
     /tmp/cc8t6dH2.s:1421   .debug_abbrev:0000000000000000 .Ldebug_abbrev0
     /tmp/cc8t6dH2.s:2358   .debug_str:0000000000000299 .LASF64
     /tmp/cc8t6dH2.s:2326   .debug_str:000000000000015b .LASF65
     /tmp/cc8t6dH2.s:2396   .debug_str:00000000000004b0 .LASF66
     /tmp/cc8t6dH2.s:5      .text:0000000000000000 .Ltext0
     /tmp/cc8t6dH2.s:537    .text:0000000000000374 .Letext0
     /tmp/cc8t6dH2.s:2284   .debug_line:0000000000000000 .Ldebug_line0
GAS LISTING /tmp/cc8t6dH2.s 			page 18


     /tmp/cc8t6dH2.s:2370   .debug_str:00000000000003e3 .LASF0
     /tmp/cc8t6dH2.s:2346   .debug_str:000000000000021a .LASF1
     /tmp/cc8t6dH2.s:2336   .debug_str:00000000000001cb .LASF2
     /tmp/cc8t6dH2.s:2304   .debug_str:000000000000008b .LASF4
     /tmp/cc8t6dH2.s:2344   .debug_str:0000000000000208 .LASF3
     /tmp/cc8t6dH2.s:2290   .debug_str:0000000000000023 .LASF5
     /tmp/cc8t6dH2.s:2286   .debug_str:0000000000000000 .LASF6
     /tmp/cc8t6dH2.s:2328   .debug_str:000000000000017e .LASF7
     /tmp/cc8t6dH2.s:2380   .debug_str:0000000000000447 .LASF8
     /tmp/cc8t6dH2.s:2302   .debug_str:000000000000007d .LASF9
     /tmp/cc8t6dH2.s:2424   .debug_str:000000000000059a .LASF10
     /tmp/cc8t6dH2.s:2330   .debug_str:0000000000000191 .LASF11
     /tmp/cc8t6dH2.s:2408   .debug_str:0000000000000536 .LASF12
     /tmp/cc8t6dH2.s:2384   .debug_str:000000000000046d .LASF13
     /tmp/cc8t6dH2.s:2348   .debug_str:000000000000022d .LASF14
     /tmp/cc8t6dH2.s:2314   .debug_str:00000000000000d9 .LASF15
     /tmp/cc8t6dH2.s:2382   .debug_str:0000000000000457 .LASF16
     /tmp/cc8t6dH2.s:2412   .debug_str:000000000000054b .LASF22
     /tmp/cc8t6dH2.s:2418   .debug_str:0000000000000584 .LASF17
     /tmp/cc8t6dH2.s:2292   .debug_str:000000000000002a .LASF18
     /tmp/cc8t6dH2.s:2420   .debug_str:0000000000000589 .LASF19
     /tmp/cc8t6dH2.s:2340   .debug_str:00000000000001f5 .LASF20
     /tmp/cc8t6dH2.s:2360   .debug_str:000000000000035d .LASF32
     /tmp/cc8t6dH2.s:2294   .debug_str:000000000000002f .LASF25
     /tmp/cc8t6dH2.s:2306   .debug_str:0000000000000092 .LASF21
     /tmp/cc8t6dH2.s:2356   .debug_str:000000000000028c .LASF23
     /tmp/cc8t6dH2.s:2410   .debug_str:0000000000000546 .LASF24
     /tmp/cc8t6dH2.s:2406   .debug_str:0000000000000520 .LASF26
     /tmp/cc8t6dH2.s:2288   .debug_str:0000000000000013 .LASF44
     /tmp/cc8t6dH2.s:2312   .debug_str:00000000000000d0 .LASF67
     /tmp/cc8t6dH2.s:2378   .debug_str:0000000000000427 .LASF68
     /tmp/cc8t6dH2.s:2414   .debug_str:0000000000000554 .LASF27
     /tmp/cc8t6dH2.s:2404   .debug_str:00000000000004ff .LASF29
     /tmp/cc8t6dH2.s:2386   .debug_str:000000000000047d .LASF28
     /tmp/cc8t6dH2.s:2334   .debug_str:00000000000001aa .LASF30
     /tmp/cc8t6dH2.s:2422   .debug_str:000000000000058e .LASF31
     /tmp/cc8t6dH2.s:2376   .debug_str:0000000000000401 .LASF33
     /tmp/cc8t6dH2.s:2390   .debug_str:000000000000048d .LASF34
     /tmp/cc8t6dH2.s:2352   .debug_str:000000000000024c .LASF35
     /tmp/cc8t6dH2.s:2296   .debug_str:0000000000000040 .LASF36
     /tmp/cc8t6dH2.s:2416   .debug_str:000000000000055e .LASF37
     /tmp/cc8t6dH2.s:2364   .debug_str:000000000000039c .LASF38
     /tmp/cc8t6dH2.s:2320   .debug_str:0000000000000112 .LASF39
     /tmp/cc8t6dH2.s:2394   .debug_str:00000000000004a3 .LASF40
     /tmp/cc8t6dH2.s:2362   .debug_str:000000000000036e .LASF41
     /tmp/cc8t6dH2.s:2324   .debug_str:000000000000014e .LASF42
     /tmp/cc8t6dH2.s:2366   .debug_str:00000000000003ae .LASF43
     /tmp/cc8t6dH2.s:2354   .debug_str:0000000000000273 .LASF45
     /tmp/cc8t6dH2.s:2310   .debug_str:00000000000000b4 .LASF46
     /tmp/cc8t6dH2.s:2332   .debug_str:00000000000001a0 .LASF52
     /tmp/cc8t6dH2.s:2338   .debug_str:00000000000001d9 .LASF54
     /tmp/cc8t6dH2.s:2398   .debug_str:00000000000004cb .LASF47
     /tmp/cc8t6dH2.s:2368   .debug_str:00000000000003dc .LASF48
     /tmp/cc8t6dH2.s:2402   .debug_str:00000000000004f3 .LASF49
     /tmp/cc8t6dH2.s:2372   .debug_str:00000000000003f0 .LASF50
     /tmp/cc8t6dH2.s:2374   .debug_str:00000000000003fc .LASF51
     /tmp/cc8t6dH2.s:2308   .debug_str:0000000000000097 .LASF53
GAS LISTING /tmp/cc8t6dH2.s 			page 19


     /tmp/cc8t6dH2.s:2300   .debug_str:000000000000005b .LASF55
     /tmp/cc8t6dH2.s:283    .text:00000000000001d0 .LFB9
     /tmp/cc8t6dH2.s:523    .text:0000000000000374 .LFE9
     /tmp/cc8t6dH2.s:2392   .debug_str:000000000000049c .LASF56
     /tmp/cc8t6dH2.s:2079   .debug_loc:0000000000000000 .LLST6
     /tmp/cc8t6dH2.s:2316   .debug_str:00000000000000ef .LASF57
     /tmp/cc8t6dH2.s:2094   .debug_loc:0000000000000049 .LLST7
     /tmp/cc8t6dH2.s:314    .text:0000000000000204 .LBB4
     /tmp/cc8t6dH2.s:342    .text:0000000000000238 .LBE4
     /tmp/cc8t6dH2.s:2105   .debug_loc:000000000000007f .LLST8
     /tmp/cc8t6dH2.s:329    .text:0000000000000224 .LVL37
     /tmp/cc8t6dH2.s:335    .text:0000000000000230 .LVL38
     /tmp/cc8t6dH2.s:343    .text:0000000000000238 .LBB5
     /tmp/cc8t6dH2.s:380    .text:0000000000000278 .LBE5
     /tmp/cc8t6dH2.s:2121   .debug_loc:00000000000000c9 .LLST9
     /tmp/cc8t6dH2.s:356    .text:000000000000024c .LBB6
     /tmp/cc8t6dH2.s:379    .text:0000000000000278 .LBE6
     /tmp/cc8t6dH2.s:2128   .debug_loc:00000000000000ec .LLST10
     /tmp/cc8t6dH2.s:381    .text:0000000000000278 .LBB7
     /tmp/cc8t6dH2.s:433    .text:00000000000002d4 .LBE7
     /tmp/cc8t6dH2.s:2139   .debug_loc:0000000000000122 .LLST11
     /tmp/cc8t6dH2.s:402    .text:0000000000000298 .LBB9
     /tmp/cc8t6dH2.s:431    .text:00000000000002d4 .LBE9
     /tmp/cc8t6dH2.s:2146   .debug_loc:0000000000000145 .LLST12
     /tmp/cc8t6dH2.s:420    .text:00000000000002c0 .LVL49
     /tmp/cc8t6dH2.s:425    .text:00000000000002cc .LVL50
     /tmp/cc8t6dH2.s:392    .text:000000000000028c .LVL46
     /tmp/cc8t6dH2.s:434    .text:00000000000002d4 .LBB11
     /tmp/cc8t6dH2.s:477    .text:0000000000000324 .LBE11
     /tmp/cc8t6dH2.s:2157   .debug_loc:000000000000017b .LLST13
     /tmp/cc8t6dH2.s:2276   .debug_ranges:0000000000000000 .Ldebug_ranges0
     /tmp/cc8t6dH2.s:2168   .debug_loc:00000000000001b1 .LLST14
     /tmp/cc8t6dH2.s:446    .text:00000000000002e8 .LVL54
     /tmp/cc8t6dH2.s:463    .text:0000000000000308 .LVL56
     /tmp/cc8t6dH2.s:473    .text:0000000000000320 .LVL59
     /tmp/cc8t6dH2.s:306    .text:00000000000001f8 .LVL33
     /tmp/cc8t6dH2.s:312    .text:0000000000000204 .LVL35
     /tmp/cc8t6dH2.s:482    .text:0000000000000330 .LVL60
     /tmp/cc8t6dH2.s:493    .text:0000000000000344 .LVL63
     /tmp/cc8t6dH2.s:520    .text:0000000000000370 .LVL68
     /tmp/cc8t6dH2.s:2342   .debug_str:00000000000001fc .LASF58
     /tmp/cc8t6dH2.s:2322   .debug_str:000000000000013d .LASF59
     /tmp/cc8t6dH2.s:219    .text:000000000000015c .LFB8
     /tmp/cc8t6dH2.s:272    .text:00000000000001d0 .LFE8
     /tmp/cc8t6dH2.s:2175   .debug_loc:00000000000001d4 .LLST5
     /tmp/cc8t6dH2.s:250    .text:00000000000001a0 .LVL30
     /tmp/cc8t6dH2.s:255    .text:00000000000001ac .LVL31
     /tmp/cc8t6dH2.s:2298   .debug_str:000000000000004e .LASF60
     /tmp/cc8t6dH2.s:2350   .debug_str:0000000000000239 .LASF61
     /tmp/cc8t6dH2.s:160    .text:00000000000000e8 .LFB7
     /tmp/cc8t6dH2.s:213    .text:000000000000015c .LFE7
     /tmp/cc8t6dH2.s:2189   .debug_loc:000000000000020d .LLST4
     /tmp/cc8t6dH2.s:189    .text:0000000000000120 .LVL26
     /tmp/cc8t6dH2.s:196    .text:0000000000000138 .LVL27
     /tmp/cc8t6dH2.s:2318   .debug_str:00000000000000f6 .LASF62
     /tmp/cc8t6dH2.s:2400   .debug_str:00000000000004d2 .LASF63
     /tmp/cc8t6dH2.s:21     .text:0000000000000000 .LFB6
GAS LISTING /tmp/cc8t6dH2.s 			page 20


     /tmp/cc8t6dH2.s:154    .text:00000000000000e8 .LFE6
     /tmp/cc8t6dH2.s:2203   .debug_loc:0000000000000246 .LLST0
     /tmp/cc8t6dH2.s:2226   .debug_loc:00000000000002b5 .LLST1
     /tmp/cc8t6dH2.s:54     .text:0000000000000030 .LBB2
     /tmp/cc8t6dH2.s:70     .text:000000000000004c .LBE2
     /tmp/cc8t6dH2.s:2237   .debug_loc:00000000000002eb .LLST2
     /tmp/cc8t6dH2.s:80     .text:0000000000000060 .LBB3
     /tmp/cc8t6dH2.s:106    .text:0000000000000090 .LBE3
     /tmp/cc8t6dH2.s:2248   .debug_loc:0000000000000321 .LLST3
     /tmp/cc8t6dH2.s:94     .text:000000000000007c .LVL11
     /tmp/cc8t6dH2.s:99     .text:0000000000000088 .LVL12
     /tmp/cc8t6dH2.s:43     .text:0000000000000024 .LVL1
     /tmp/cc8t6dH2.s:76     .text:000000000000005c .LVL8
     /tmp/cc8t6dH2.s:111    .text:000000000000009c .LVL15
     /tmp/cc8t6dH2.s:116    .text:00000000000000a8 .LVL16
     /tmp/cc8t6dH2.s:124    .text:00000000000000bc .LVL18
     /tmp/cc8t6dH2.s:150    .text:00000000000000e4 .LVL23
     /tmp/cc8t6dH2.s:2388   .debug_str:0000000000000486 .LASF69
     /tmp/cc8t6dH2.s:308    .text:00000000000001fc .LVL34
     /tmp/cc8t6dH2.s:505    .text:0000000000000354 .LVL64
     /tmp/cc8t6dH2.s:512    .text:0000000000000360 .LVL66
     /tmp/cc8t6dH2.s:484    .text:0000000000000334 .LVL61
     /tmp/cc8t6dH2.s:487    .text:0000000000000338 .LVL62
     /tmp/cc8t6dH2.s:518    .text:0000000000000368 .LVL67
     /tmp/cc8t6dH2.s:317    .text:0000000000000208 .LVL36
     /tmp/cc8t6dH2.s:338    .text:0000000000000234 .LVL39
     /tmp/cc8t6dH2.s:340    .text:0000000000000238 .LVL40
     /tmp/cc8t6dH2.s:385    .text:0000000000000280 .LVL45
     /tmp/cc8t6dH2.s:347    .text:0000000000000240 .LVL41
     /tmp/cc8t6dH2.s:351    .text:0000000000000244 .LVL42
     /tmp/cc8t6dH2.s:360    .text:0000000000000250 .LVL43
     /tmp/cc8t6dH2.s:376    .text:0000000000000274 .LVL44
     /tmp/cc8t6dH2.s:437    .text:00000000000002d8 .LVL52
     /tmp/cc8t6dH2.s:396    .text:0000000000000290 .LVL47
     /tmp/cc8t6dH2.s:406    .text:000000000000029c .LVL48
     /tmp/cc8t6dH2.s:428    .text:00000000000002d0 .LVL51
     /tmp/cc8t6dH2.s:439    .text:00000000000002dc .LVL53
     /tmp/cc8t6dH2.s:508    .text:0000000000000358 .LVL65
     /tmp/cc8t6dH2.s:465    .text:000000000000030c .LVL57
     /tmp/cc8t6dH2.s:471    .text:0000000000000318 .LVL58
     /tmp/cc8t6dH2.s:222    .text:000000000000015c .LVL28
     /tmp/cc8t6dH2.s:246    .text:0000000000000190 .LVL29
     /tmp/cc8t6dH2.s:163    .text:00000000000000e8 .LVL24
     /tmp/cc8t6dH2.s:187    .text:0000000000000118 .LVL25
     /tmp/cc8t6dH2.s:45     .text:0000000000000028 .LVL2
     /tmp/cc8t6dH2.s:48     .text:000000000000002c .LVL3
     /tmp/cc8t6dH2.s:68     .text:000000000000004c .LVL6
     /tmp/cc8t6dH2.s:74     .text:0000000000000054 .LVL7
     /tmp/cc8t6dH2.s:138    .text:00000000000000cc .LVL20
     /tmp/cc8t6dH2.s:142    .text:00000000000000d4 .LVL21
     /tmp/cc8t6dH2.s:122    .text:00000000000000b4 .LVL17
     /tmp/cc8t6dH2.s:148    .text:00000000000000dc .LVL22
     /tmp/cc8t6dH2.s:53     .text:0000000000000030 .LVL4
     /tmp/cc8t6dH2.s:66     .text:0000000000000048 .LVL5
     /tmp/cc8t6dH2.s:78     .text:0000000000000060 .LVL9
     /tmp/cc8t6dH2.s:83     .text:0000000000000064 .LVL10
     /tmp/cc8t6dH2.s:102    .text:000000000000008c .LVL13
GAS LISTING /tmp/cc8t6dH2.s 			page 21


     /tmp/cc8t6dH2.s:104    .text:0000000000000090 .LVL14
     /tmp/cc8t6dH2.s:135    .text:00000000000000c8 .LVL19
     /tmp/cc8t6dH2.s:542    .debug_info:0000000000000000 .Ldebug_info0
     /tmp/cc8t6dH2.s:441    .text:00000000000002dc .LBB12
     /tmp/cc8t6dH2.s:447    .text:00000000000002e8 .LBE12
     /tmp/cc8t6dH2.s:455    .text:00000000000002f4 .LBB13
     /tmp/cc8t6dH2.s:476    .text:0000000000000324 .LBE13

UNDEFINED SYMBOLS
_ZN15MemoryAllocator9mem_allocEm
_ZN15MemoryAllocator11printStringEPKc
__putc
_ZN15MemoryAllocator8mem_freeEPv
