GAS LISTING /tmp/ccpIbeLg.s 			page 1


   1              		.file	"_new.cpp"
   2              		.option pic
   3              		.option norelax
   4              		.text
   5              	.Ltext0:
   6              		.align	2
   7              		.globl	_Znwm
   9              	_Znwm:
  10              	.LFB6:
  11              		.file 1 "src/_new.cpp"
   1:src/_new.cpp  **** #include "../h/MemoryAllocator.hpp"
   2:src/_new.cpp  **** using size_t = decltype(sizeof(0));
   3:src/_new.cpp  **** 
   4:src/_new.cpp  **** void *operator new(size_t n)
   5:src/_new.cpp  **** {
  12              		.loc 1 5 1
  13              		.cfi_startproc
  14              	.LVL0:
  15 0000 130101FF 		addi	sp,sp,-16
  16              		.cfi_def_cfa_offset 16
  17 0004 23341100 		sd	ra,8(sp)
  18 0008 23308100 		sd	s0,0(sp)
  19              		.cfi_offset 1, -8
  20              		.cfi_offset 8, -16
  21 000c 13040101 		addi	s0,sp,16
  22              		.cfi_def_cfa 8, 0
   6:src/_new.cpp  ****     return MemoryAllocator::mem_alloc(n);
  23              		.loc 1 6 5
  24              		.loc 1 6 38 is_stmt 0
  25 0010 97000000 		call	_ZN15MemoryAllocator9mem_allocEm@plt
  25      E7800000 
  26              	.LVL1:
   7:src/_new.cpp  **** }
  27              		.loc 1 7 1
  28 0018 83308100 		ld	ra,8(sp)
  29              		.cfi_restore 1
  30 001c 03340100 		ld	s0,0(sp)
  31              		.cfi_restore 8
  32              		.cfi_def_cfa 2, 16
  33 0020 13010101 		addi	sp,sp,16
  34              		.cfi_def_cfa_offset 0
  35 0024 67800000 		jr	ra
  36              		.cfi_endproc
  37              	.LFE6:
  39              		.align	2
  40              		.globl	_Znam
  42              	_Znam:
  43              	.LFB7:
   8:src/_new.cpp  **** 
   9:src/_new.cpp  **** void *operator new[](size_t n)
  10:src/_new.cpp  **** {
  44              		.loc 1 10 1 is_stmt 1
  45              		.cfi_startproc
  46              	.LVL2:
  47 0028 130101FF 		addi	sp,sp,-16
  48              		.cfi_def_cfa_offset 16
  49 002c 23341100 		sd	ra,8(sp)
GAS LISTING /tmp/ccpIbeLg.s 			page 2


  50 0030 23308100 		sd	s0,0(sp)
  51              		.cfi_offset 1, -8
  52              		.cfi_offset 8, -16
  53 0034 13040101 		addi	s0,sp,16
  54              		.cfi_def_cfa 8, 0
  11:src/_new.cpp  ****     return MemoryAllocator::mem_alloc(n);
  55              		.loc 1 11 5
  56              		.loc 1 11 38 is_stmt 0
  57 0038 97000000 		call	_ZN15MemoryAllocator9mem_allocEm@plt
  57      E7800000 
  58              	.LVL3:
  12:src/_new.cpp  **** }
  59              		.loc 1 12 1
  60 0040 83308100 		ld	ra,8(sp)
  61              		.cfi_restore 1
  62 0044 03340100 		ld	s0,0(sp)
  63              		.cfi_restore 8
  64              		.cfi_def_cfa 2, 16
  65 0048 13010101 		addi	sp,sp,16
  66              		.cfi_def_cfa_offset 0
  67 004c 67800000 		jr	ra
  68              		.cfi_endproc
  69              	.LFE7:
  71              		.section	.rodata.str1.8,"aMS",@progbits,1
  72              		.align	3
  73              	.LC0:
  74 0000 4E656B61 		.string	"Neka greska prilikom brisanja!\n"
  74      20677265 
  74      736B6120 
  74      7072696C 
  74      696B6F6D 
  75              		.text
  76              		.align	2
  77              		.globl	_ZdlPv
  79              	_ZdlPv:
  80              	.LFB8:
  13:src/_new.cpp  **** 
  14:src/_new.cpp  **** void operator delete(void *p) noexcept
  15:src/_new.cpp  **** {
  81              		.loc 1 15 1 is_stmt 1
  82              		.cfi_startproc
  83              		.cfi_personality 0x9b,DW.ref.__gxx_personality_v0
  84              		.cfi_lsda 0x1b,.LLSDA8
  85              	.LVL4:
  86 0050 130101FF 		addi	sp,sp,-16
  87              		.cfi_def_cfa_offset 16
  88 0054 23341100 		sd	ra,8(sp)
  89 0058 23308100 		sd	s0,0(sp)
  90              		.cfi_offset 1, -8
  91              		.cfi_offset 8, -16
  92 005c 13040101 		addi	s0,sp,16
  93              		.cfi_def_cfa 8, 0
  16:src/_new.cpp  ****    int sts = MemoryAllocator::mem_free(p);
  94              		.loc 1 16 4
  95              		.loc 1 16 39 is_stmt 0
  96 0060 97000000 		call	_ZN15MemoryAllocator8mem_freeEPv@plt
  96      E7800000 
GAS LISTING /tmp/ccpIbeLg.s 			page 3


  97              	.LVL5:
  17:src/_new.cpp  ****    if(sts != 0) MemoryAllocator::printString("Neka greska prilikom brisanja!\n");
  98              		.loc 1 17 4 is_stmt 1
  99 0068 631A0500 		bnez	a0,.L8
 100              	.LVL6:
 101              	.L5:
  18:src/_new.cpp  **** }
 102              		.loc 1 18 1 is_stmt 0
 103 006c 83308100 		ld	ra,8(sp)
 104              		.cfi_remember_state
 105              		.cfi_restore 1
 106 0070 03340100 		ld	s0,0(sp)
 107              		.cfi_restore 8
 108              		.cfi_def_cfa 2, 16
 109 0074 13010101 		addi	sp,sp,16
 110              		.cfi_def_cfa_offset 0
 111 0078 67800000 		jr	ra
 112              	.LVL7:
 113              	.L8:
 114              		.cfi_restore_state
  17:src/_new.cpp  ****    if(sts != 0) MemoryAllocator::printString("Neka greska prilikom brisanja!\n");
 115              		.loc 1 17 17 is_stmt 1 discriminator 1
  17:src/_new.cpp  ****    if(sts != 0) MemoryAllocator::printString("Neka greska prilikom brisanja!\n");
 116              		.loc 1 17 45 is_stmt 0 discriminator 1
 117 007c 17050000 		lla	a0,.LC0
 117      13050500 
 118              	.LVL8:
 119 0084 97000000 		call	_ZN15MemoryAllocator11printStringEPKc@plt
 119      E7800000 
 120              	.LVL9:
 121              		.loc 1 18 1 discriminator 1
 122 008c 6FF01FFE 		j	.L5
 123              		.cfi_endproc
 124              	.LFE8:
 125              		.globl	__gxx_personality_v0
 126              		.section	.gcc_except_table,"a",@progbits
 127              	.LLSDA8:
 128 0000 FF       		.byte	0xff
 129 0001 FF       		.byte	0xff
 130 0002 03       		.byte	0x3
 131 0003 00       		.byte	0
 132              		.text
 134              		.align	2
 135              		.globl	_ZdaPv
 137              	_ZdaPv:
 138              	.LFB9:
  19:src/_new.cpp  **** 
  20:src/_new.cpp  **** void operator delete[](void *p) noexcept
  21:src/_new.cpp  **** {
 139              		.loc 1 21 1 is_stmt 1
 140              		.cfi_startproc
 141              		.cfi_personality 0x9b,DW.ref.__gxx_personality_v0
 142              		.cfi_lsda 0x1b,.LLSDA9
 143              	.LVL10:
 144 0090 130101FF 		addi	sp,sp,-16
 145              		.cfi_def_cfa_offset 16
 146 0094 23341100 		sd	ra,8(sp)
GAS LISTING /tmp/ccpIbeLg.s 			page 4


 147 0098 23308100 		sd	s0,0(sp)
 148              		.cfi_offset 1, -8
 149              		.cfi_offset 8, -16
 150 009c 13040101 		addi	s0,sp,16
 151              		.cfi_def_cfa 8, 0
  22:src/_new.cpp  ****     int sts = MemoryAllocator::mem_free(p);
 152              		.loc 1 22 5
 153              		.loc 1 22 40 is_stmt 0
 154 00a0 97000000 		call	_ZN15MemoryAllocator8mem_freeEPv@plt
 154      E7800000 
 155              	.LVL11:
  23:src/_new.cpp  ****     if(sts != 0) MemoryAllocator::printString("Neka greska prilikom brisanja!\n");
 156              		.loc 1 23 5 is_stmt 1
 157 00a8 631A0500 		bnez	a0,.L12
 158              	.LVL12:
 159              	.L9:
  24:src/_new.cpp  **** }...
 160              		.loc 1 24 1 is_stmt 0
 161 00ac 83308100 		ld	ra,8(sp)
 162              		.cfi_remember_state
 163              		.cfi_restore 1
 164 00b0 03340100 		ld	s0,0(sp)
 165              		.cfi_restore 8
 166              		.cfi_def_cfa 2, 16
 167 00b4 13010101 		addi	sp,sp,16
 168              		.cfi_def_cfa_offset 0
 169 00b8 67800000 		jr	ra
 170              	.LVL13:
 171              	.L12:
 172              		.cfi_restore_state
  23:src/_new.cpp  ****     if(sts != 0) MemoryAllocator::printString("Neka greska prilikom brisanja!\n");
 173              		.loc 1 23 18 is_stmt 1 discriminator 1
  23:src/_new.cpp  ****     if(sts != 0) MemoryAllocator::printString("Neka greska prilikom brisanja!\n");
 174              		.loc 1 23 46 is_stmt 0 discriminator 1
 175 00bc 17050000 		lla	a0,.LC0
 175      13050500 
 176              	.LVL14:
 177 00c4 97000000 		call	_ZN15MemoryAllocator11printStringEPKc@plt
 177      E7800000 
 178              	.LVL15:
 179              		.loc 1 24 1 discriminator 1
 180 00cc 6FF01FFE 		j	.L9
 181              		.cfi_endproc
 182              	.LFE9:
 183              		.section	.gcc_except_table
 184              	.LLSDA9:
 185 0004 FF       		.byte	0xff
 186 0005 FF       		.byte	0xff
 187 0006 03       		.byte	0x3
 188 0007 00       		.byte	0
 189              		.text
 191              	.Letext0:
 192              		.file 2 "src/../h/../lib/hw.h"
 193              		.file 3 "src/../h/MemoryAllocator.hpp"
 1597              		.align	3
 1600              	DW.ref.__gxx_personality_v0:
 1601 0000 00000000 		.dword	__gxx_personality_v0
GAS LISTING /tmp/ccpIbeLg.s 			page 5


 1601      00000000 
 1602              		.ident	"GCC: (Ubuntu 9.4.0-1ubuntu1~20.04) 9.4.0"
 1603              		.section	.note.GNU-stack,"",@progbits
GAS LISTING /tmp/ccpIbeLg.s 			page 6


DEFINED SYMBOLS
                            *ABS*:0000000000000000 _new.cpp
     /tmp/ccpIbeLg.s:9      .text:0000000000000000 _Znwm
     /tmp/ccpIbeLg.s:13     .text:0000000000000000 .L0 
     /tmp/ccpIbeLg.s:15     .text:0000000000000000 .L0 
     /tmp/ccpIbeLg.s:16     .text:0000000000000004 .L0 
     /tmp/ccpIbeLg.s:19     .text:000000000000000c .L0 
     /tmp/ccpIbeLg.s:20     .text:000000000000000c .L0 
     /tmp/ccpIbeLg.s:22     .text:0000000000000010 .L0 
     /tmp/ccpIbeLg.s:24     .text:0000000000000010 .L0 
     /tmp/ccpIbeLg.s:25     .text:0000000000000010 .L0 
     /tmp/ccpIbeLg.s:28     .text:0000000000000018 .L0 
     /tmp/ccpIbeLg.s:29     .text:000000000000001c .L0 
     /tmp/ccpIbeLg.s:31     .text:0000000000000020 .L0 
     /tmp/ccpIbeLg.s:32     .text:0000000000000020 .L0 
     /tmp/ccpIbeLg.s:34     .text:0000000000000024 .L0 
     /tmp/ccpIbeLg.s:36     .text:0000000000000028 .L0 
     /tmp/ccpIbeLg.s:42     .text:0000000000000028 _Znam
     /tmp/ccpIbeLg.s:45     .text:0000000000000028 .L0 
     /tmp/ccpIbeLg.s:47     .text:0000000000000028 .L0 
     /tmp/ccpIbeLg.s:48     .text:000000000000002c .L0 
     /tmp/ccpIbeLg.s:51     .text:0000000000000034 .L0 
     /tmp/ccpIbeLg.s:52     .text:0000000000000034 .L0 
     /tmp/ccpIbeLg.s:54     .text:0000000000000038 .L0 
     /tmp/ccpIbeLg.s:56     .text:0000000000000038 .L0 
     /tmp/ccpIbeLg.s:57     .text:0000000000000038 .L0 
     /tmp/ccpIbeLg.s:60     .text:0000000000000040 .L0 
     /tmp/ccpIbeLg.s:61     .text:0000000000000044 .L0 
     /tmp/ccpIbeLg.s:63     .text:0000000000000048 .L0 
     /tmp/ccpIbeLg.s:64     .text:0000000000000048 .L0 
     /tmp/ccpIbeLg.s:66     .text:000000000000004c .L0 
     /tmp/ccpIbeLg.s:68     .text:0000000000000050 .L0 
     /tmp/ccpIbeLg.s:79     .text:0000000000000050 _ZdlPv
     /tmp/ccpIbeLg.s:82     .text:0000000000000050 .L0 
     /tmp/ccpIbeLg.s:1600   .data.rel.local.DW.ref.__gxx_personality_v0:0000000000000000 DW.ref.__gxx_personality_v0
     /tmp/ccpIbeLg.s:86     .text:0000000000000050 .L0 
     /tmp/ccpIbeLg.s:87     .text:0000000000000054 .L0 
     /tmp/ccpIbeLg.s:90     .text:000000000000005c .L0 
     /tmp/ccpIbeLg.s:91     .text:000000000000005c .L0 
     /tmp/ccpIbeLg.s:93     .text:0000000000000060 .L0 
     /tmp/ccpIbeLg.s:95     .text:0000000000000060 .L0 
     /tmp/ccpIbeLg.s:96     .text:0000000000000060 .L0 
     /tmp/ccpIbeLg.s:99     .text:0000000000000068 .L0 
     /tmp/ccpIbeLg.s:103    .text:000000000000006c .L0 
     /tmp/ccpIbeLg.s:104    .text:0000000000000070 .L0 
     /tmp/ccpIbeLg.s:105    .text:0000000000000070 .L0 
     /tmp/ccpIbeLg.s:107    .text:0000000000000074 .L0 
     /tmp/ccpIbeLg.s:108    .text:0000000000000074 .L0 
     /tmp/ccpIbeLg.s:110    .text:0000000000000078 .L0 
     /tmp/ccpIbeLg.s:114    .text:000000000000007c .L0 
     /tmp/ccpIbeLg.s:116    .text:000000000000007c .L0 
     /tmp/ccpIbeLg.s:117    .text:000000000000007c .L0 
     /tmp/ccpIbeLg.s:122    .text:000000000000008c .L0 
     /tmp/ccpIbeLg.s:123    .text:0000000000000090 .L0 
     /tmp/ccpIbeLg.s:137    .text:0000000000000090 _ZdaPv
     /tmp/ccpIbeLg.s:140    .text:0000000000000090 .L0 
     /tmp/ccpIbeLg.s:144    .text:0000000000000090 .L0 
GAS LISTING /tmp/ccpIbeLg.s 			page 7


     /tmp/ccpIbeLg.s:145    .text:0000000000000094 .L0 
     /tmp/ccpIbeLg.s:148    .text:000000000000009c .L0 
     /tmp/ccpIbeLg.s:149    .text:000000000000009c .L0 
     /tmp/ccpIbeLg.s:151    .text:00000000000000a0 .L0 
     /tmp/ccpIbeLg.s:153    .text:00000000000000a0 .L0 
     /tmp/ccpIbeLg.s:154    .text:00000000000000a0 .L0 
     /tmp/ccpIbeLg.s:157    .text:00000000000000a8 .L0 
     /tmp/ccpIbeLg.s:161    .text:00000000000000ac .L0 
     /tmp/ccpIbeLg.s:162    .text:00000000000000b0 .L0 
     /tmp/ccpIbeLg.s:163    .text:00000000000000b0 .L0 
     /tmp/ccpIbeLg.s:165    .text:00000000000000b4 .L0 
     /tmp/ccpIbeLg.s:166    .text:00000000000000b4 .L0 
     /tmp/ccpIbeLg.s:168    .text:00000000000000b8 .L0 
     /tmp/ccpIbeLg.s:172    .text:00000000000000bc .L0 
     /tmp/ccpIbeLg.s:174    .text:00000000000000bc .L0 
     /tmp/ccpIbeLg.s:175    .text:00000000000000bc .L0 
     /tmp/ccpIbeLg.s:180    .text:00000000000000cc .L0 
     /tmp/ccpIbeLg.s:181    .text:00000000000000d0 .L0 
     /tmp/ccpIbeLg.s:194    .text:00000000000000d0 .L0 
     /tmp/ccpIbeLg.s:73     .rodata.str1.8:0000000000000000 .LC0
     /tmp/ccpIbeLg.s:117    .text:000000000000007c .L0 
     /tmp/ccpIbeLg.s:175    .text:00000000000000bc .L0 
     /tmp/ccpIbeLg.s:113    .text:000000000000007c .L8
     /tmp/ccpIbeLg.s:101    .text:000000000000006c .L5
     /tmp/ccpIbeLg.s:171    .text:00000000000000bc .L12
     /tmp/ccpIbeLg.s:159    .text:00000000000000ac .L9
     /tmp/ccpIbeLg.s:776    .debug_abbrev:0000000000000000 .Ldebug_abbrev0
     /tmp/ccpIbeLg.s:1522   .debug_str:00000000000001f6 .LASF60
     /tmp/ccpIbeLg.s:1490   .debug_str:00000000000000e2 .LASF61
     /tmp/ccpIbeLg.s:1558   .debug_str:000000000000040f .LASF62
     /tmp/ccpIbeLg.s:5      .text:0000000000000000 .Ltext0
     /tmp/ccpIbeLg.s:191    .text:00000000000000d0 .Letext0
     /tmp/ccpIbeLg.s:1458   .debug_line:0000000000000000 .Ldebug_line0
     /tmp/ccpIbeLg.s:1534   .debug_str:0000000000000340 .LASF0
     /tmp/ccpIbeLg.s:1512   .debug_str:000000000000018a .LASF1
     /tmp/ccpIbeLg.s:1502   .debug_str:0000000000000141 .LASF2
     /tmp/ccpIbeLg.s:1478   .debug_str:0000000000000070 .LASF4
     /tmp/ccpIbeLg.s:1510   .debug_str:0000000000000178 .LASF3
     /tmp/ccpIbeLg.s:1466   .debug_str:0000000000000030 .LASF5
     /tmp/ccpIbeLg.s:1462   .debug_str:000000000000000d .LASF6
     /tmp/ccpIbeLg.s:1494   .debug_str:00000000000000f4 .LASF7
     /tmp/ccpIbeLg.s:1546   .debug_str:00000000000003b4 .LASF8
     /tmp/ccpIbeLg.s:1476   .debug_str:0000000000000062 .LASF9
     /tmp/ccpIbeLg.s:1592   .debug_str:0000000000000510 .LASF10
     /tmp/ccpIbeLg.s:1496   .debug_str:0000000000000107 .LASF11
     /tmp/ccpIbeLg.s:1572   .debug_str:0000000000000497 .LASF12
     /tmp/ccpIbeLg.s:1550   .debug_str:00000000000003da .LASF13
     /tmp/ccpIbeLg.s:1514   .debug_str:000000000000019d .LASF14
     /tmp/ccpIbeLg.s:1486   .debug_str:00000000000000a1 .LASF15
     /tmp/ccpIbeLg.s:1548   .debug_str:00000000000003c4 .LASF16
     /tmp/ccpIbeLg.s:1576   .debug_str:00000000000004ae .LASF22
     /tmp/ccpIbeLg.s:1584   .debug_str:00000000000004f4 .LASF17
     /tmp/ccpIbeLg.s:1468   .debug_str:0000000000000037 .LASF18
     /tmp/ccpIbeLg.s:1588   .debug_str:00000000000004ff .LASF19
     /tmp/ccpIbeLg.s:1508   .debug_str:0000000000000171 .LASF20
     /tmp/ccpIbeLg.s:1524   .debug_str:00000000000002ba .LASF32
     /tmp/ccpIbeLg.s:1470   .debug_str:000000000000003c .LASF25
GAS LISTING /tmp/ccpIbeLg.s 			page 8


     /tmp/ccpIbeLg.s:1480   .debug_str:0000000000000077 .LASF21
     /tmp/ccpIbeLg.s:1520   .debug_str:00000000000001e9 .LASF23
     /tmp/ccpIbeLg.s:1492   .debug_str:00000000000000ef .LASF24
     /tmp/ccpIbeLg.s:1570   .debug_str:0000000000000481 .LASF26
     /tmp/ccpIbeLg.s:1464   .debug_str:0000000000000020 .LASF44
     /tmp/ccpIbeLg.s:1484   .debug_str:0000000000000098 .LASF63
     /tmp/ccpIbeLg.s:1544   .debug_str:0000000000000394 .LASF64
     /tmp/ccpIbeLg.s:1580   .debug_str:00000000000004c4 .LASF27
     /tmp/ccpIbeLg.s:1568   .debug_str:0000000000000460 .LASF29
     /tmp/ccpIbeLg.s:1552   .debug_str:00000000000003ea .LASF28
     /tmp/ccpIbeLg.s:1500   .debug_str:0000000000000120 .LASF30
     /tmp/ccpIbeLg.s:1590   .debug_str:0000000000000504 .LASF31
     /tmp/ccpIbeLg.s:1542   .debug_str:000000000000036e .LASF33
     /tmp/ccpIbeLg.s:1554   .debug_str:00000000000003f3 .LASF34
     /tmp/ccpIbeLg.s:1516   .debug_str:00000000000001a9 .LASF35
     /tmp/ccpIbeLg.s:1472   .debug_str:000000000000004d .LASF36
     /tmp/ccpIbeLg.s:1582   .debug_str:00000000000004ce .LASF37
     /tmp/ccpIbeLg.s:1528   .debug_str:00000000000002f9 .LASF38
     /tmp/ccpIbeLg.s:1488   .debug_str:00000000000000b7 .LASF39
     /tmp/ccpIbeLg.s:1556   .debug_str:0000000000000402 .LASF40
     /tmp/ccpIbeLg.s:1526   .debug_str:00000000000002cb .LASF41
     /tmp/ccpIbeLg.s:1460   .debug_str:0000000000000000 .LASF42
     /tmp/ccpIbeLg.s:1530   .debug_str:000000000000030b .LASF43
     /tmp/ccpIbeLg.s:1518   .debug_str:00000000000001d0 .LASF45
     /tmp/ccpIbeLg.s:1482   .debug_str:000000000000007c .LASF46
     /tmp/ccpIbeLg.s:1498   .debug_str:0000000000000116 .LASF52
     /tmp/ccpIbeLg.s:1504   .debug_str:000000000000014f .LASF54
     /tmp/ccpIbeLg.s:1564   .debug_str:000000000000044d .LASF47
     /tmp/ccpIbeLg.s:1532   .debug_str:0000000000000339 .LASF48
     /tmp/ccpIbeLg.s:1566   .debug_str:0000000000000454 .LASF49
     /tmp/ccpIbeLg.s:1536   .debug_str:000000000000034d .LASF50
     /tmp/ccpIbeLg.s:1540   .debug_str:0000000000000369 .LASF51
     /tmp/ccpIbeLg.s:1560   .debug_str:000000000000042a .LASF53
     /tmp/ccpIbeLg.s:1474   .debug_str:000000000000005b .LASF55
     /tmp/ccpIbeLg.s:138    .text:0000000000000090 .LFB9
     /tmp/ccpIbeLg.s:182    .text:00000000000000d0 .LFE9
     /tmp/ccpIbeLg.s:1367   .debug_loc:0000000000000000 .LLST4
     /tmp/ccpIbeLg.s:1381   .debug_loc:0000000000000039 .LLST5
     /tmp/ccpIbeLg.s:155    .text:00000000000000a8 .LVL11
     /tmp/ccpIbeLg.s:178    .text:00000000000000cc .LVL15
     /tmp/ccpIbeLg.s:1538   .debug_str:0000000000000359 .LASF56
     /tmp/ccpIbeLg.s:1574   .debug_str:00000000000004a7 .LASF57
     /tmp/ccpIbeLg.s:80     .text:0000000000000050 .LFB8
     /tmp/ccpIbeLg.s:124    .text:0000000000000090 .LFE8
     /tmp/ccpIbeLg.s:1392   .debug_loc:000000000000006f .LLST2
     /tmp/ccpIbeLg.s:1406   .debug_loc:00000000000000a8 .LLST3
     /tmp/ccpIbeLg.s:97     .text:0000000000000068 .LVL5
     /tmp/ccpIbeLg.s:120    .text:000000000000008c .LVL9
     /tmp/ccpIbeLg.s:1562   .debug_str:000000000000043d .LASF65
     /tmp/ccpIbeLg.s:1506   .debug_str:000000000000016b .LASF66
     /tmp/ccpIbeLg.s:43     .text:0000000000000028 .LFB7
     /tmp/ccpIbeLg.s:69     .text:0000000000000050 .LFE7
     /tmp/ccpIbeLg.s:1417   .debug_loc:00000000000000de .LLST1
     /tmp/ccpIbeLg.s:58     .text:0000000000000040 .LVL3
     /tmp/ccpIbeLg.s:1578   .debug_str:00000000000004b7 .LASF58
     /tmp/ccpIbeLg.s:1586   .debug_str:00000000000004f9 .LASF59
     /tmp/ccpIbeLg.s:10     .text:0000000000000000 .LFB6
GAS LISTING /tmp/ccpIbeLg.s 			page 9


     /tmp/ccpIbeLg.s:37     .text:0000000000000028 .LFE6
     /tmp/ccpIbeLg.s:1431   .debug_loc:0000000000000117 .LLST0
     /tmp/ccpIbeLg.s:26     .text:0000000000000018 .LVL1
     /tmp/ccpIbeLg.s:143    .text:0000000000000090 .LVL10
     /tmp/ccpIbeLg.s:158    .text:00000000000000ac .LVL12
     /tmp/ccpIbeLg.s:170    .text:00000000000000bc .LVL13
     /tmp/ccpIbeLg.s:176    .text:00000000000000c4 .LVL14
     /tmp/ccpIbeLg.s:85     .text:0000000000000050 .LVL4
     /tmp/ccpIbeLg.s:100    .text:000000000000006c .LVL6
     /tmp/ccpIbeLg.s:112    .text:000000000000007c .LVL7
     /tmp/ccpIbeLg.s:118    .text:0000000000000084 .LVL8
     /tmp/ccpIbeLg.s:46     .text:0000000000000028 .LVL2
     /tmp/ccpIbeLg.s:14     .text:0000000000000000 .LVL0
     /tmp/ccpIbeLg.s:195    .debug_info:0000000000000000 .Ldebug_info0
     /tmp/ccpIbeLg.s:127    .gcc_except_table:0000000000000000 .LLSDA8
     /tmp/ccpIbeLg.s:184    .gcc_except_table:0000000000000004 .LLSDA9

UNDEFINED SYMBOLS
_ZN15MemoryAllocator9mem_allocEm
_ZN15MemoryAllocator8mem_freeEPv
_ZN15MemoryAllocator11printStringEPKc
__gxx_personality_v0
