GAS LISTING /tmp/ccpIbeLg.s 			page 1


   1              		.file	"_new.cpp"
   2              		.option pic
   3              		.option norelax
   4              		.text
   5              	.Ltext0:
   6              		.align	2
   7              		.globl	_Znwm
   9              	_Znwm:
  10              	.LFB6:
  11              		.file 1 "src/_new.cpp"
   1:src/_new.cpp  **** #include "../h/MemoryAllocator.hpp"
   2:src/_new.cpp  **** using size_t = decltype(sizeof(0));
   3:src/_new.cpp  **** 
   4:src/_new.cpp  **** void *operator new(size_t n)
   5:src/_new.cpp  **** {
  12              		.loc 1 5 1
  13              		.cfi_startproc
  14              	.LVL0:
  15 0000 130101FF 		addi	sp,sp,-16
  16              		.cfi_def_cfa_offset 16
  17 0004 23341100 		sd	ra,8(sp)
  18 0008 23308100 		sd	s0,0(sp)
  19              		.cfi_offset 1, -8
  20              		.cfi_offset 8, -16
  21 000c 13040101 		addi	s0,sp,16
  22              		.cfi_def_cfa 8, 0
   6:src/_new.cpp  ****     return MemoryAllocator::mem_alloc(n);
  23              		.loc 1 6 5
  24              		.loc 1 6 38 is_stmt 0
  25 0010 97000000 		call	_ZN15MemoryAllocator9mem_allocEm@plt
  25      E7800000 
  26              	.LVL1:
   7:src/_new.cpp  **** }
  27              		.loc 1 7 1
  28 0018 83308100 		ld	ra,8(sp)
  29              		.cfi_restore 1
  30 001c 03340100 		ld	s0,0(sp)
  31              		.cfi_restore 8
  32              		.cfi_def_cfa 2, 16
  33 0020 13010101 		addi	sp,sp,16
  34              		.cfi_def_cfa_offset 0
  35 0024 67800000 		jr	ra
  36              		.cfi_endproc
  37              	.LFE6:
  39              		.align	2
  40              		.globl	_Znam
  42              	_Znam:
  43              	.LFB7:
   8:src/_new.cpp  **** 
   9:src/_new.cpp  **** void *operator new[](size_t n)
  10:src/_new.cpp  **** {
  44              		.loc 1 10 1 is_stmt 1
  45              		.cfi_startproc
  46              	.LVL2:
  47 0028 130101FF 		addi	sp,sp,-16
  48              		.cfi_def_cfa_offset 16
  49 002c 23341100 		sd	ra,8(sp)
GAS LISTING /tmp/ccpIbeLg.s 			page 2


  50 0030 23308100 		sd	s0,0(sp)
  51              		.cfi_offset 1, -8
  52              		.cfi_offset 8, -16
  53 0034 13040101 		addi	s0,sp,16
  54              		.cfi_def_cfa 8, 0
  11:src/_new.cpp  ****     return MemoryAllocator::mem_alloc(n);
  55              		.loc 1 11 5
  56              		.loc 1 11 38 is_stmt 0
  57 0038 97000000 		call	_ZN15MemoryAllocator9mem_allocEm@plt
  57      E7800000 
  58              	.LVL3:
  12:src/_new.cpp  **** }
  59              		.loc 1 12 1
  60 0040 83308100 		ld	ra,8(sp)
  61              		.cfi_restore 1
  62 0044 03340100 		ld	s0,0(sp)
  63              		.cfi_restore 8
  64              		.cfi_def_cfa 2, 16
  65 0048 13010101 		addi	sp,sp,16
  66              		.cfi_def_cfa_offset 0
  67 004c 67800000 		jr	ra
  68              		.cfi_endproc
  69              	.LFE7:
  71              		.section	.rodata.str1.8,"aMS",@progbits,1
  72              		.align	3
  73              	.LC0:
  74 0000 4E656B61 		.string	"Neka greska prilikom brisanja!\n"
  74      20677265 
  74      736B6120 
  74      7072696C 
  74      696B6F6D 
  75              		.text
  76              		.align	2
  77              		.globl	_ZdlPv
  79              	_ZdlPv:
  80              	.LFB8:
  13:src/_new.cpp  **** 
  14:src/_new.cpp  **** void operator delete(void *p) noexcept
  15:src/_new.cpp  **** {
  81              		.loc 1 15 1 is_stmt 1
  82              		.cfi_startproc
  83              		.cfi_personality 0x9b,DW.ref.__gxx_personality_v0
  84              		.cfi_lsda 0x1b,.LLSDA8
  85              	.LVL4:
  86 0050 130101FF 		addi	sp,sp,-16
  87              		.cfi_def_cfa_offset 16
  88 0054 23341100 		sd	ra,8(sp)
  89 0058 23308100 		sd	s0,0(sp)
  90              		.cfi_offset 1, -8
  91              		.cfi_offset 8, -16
  92 005c 13040101 		addi	s0,sp,16
  93              		.cfi_def_cfa 8, 0
  16:src/_new.cpp  ****    int sts = MemoryAllocator::mem_free(p);
  94              		.loc 1 16 4
  95              		.loc 1 16 39 is_stmt 0
  96 0060 97000000 		call	_ZN15MemoryAllocator8mem_freeEPv@plt
  96      E7800000 
GAS LISTING /tmp/ccpIbeLg.s 			page 3


  97              	.LVL5:
  17:src/_new.cpp  ****    if(sts != 0) MemoryAllocator::printString("Neka greska prilikom brisanja!\n");
  98              		.loc 1 17 4 is_stmt 1
  99 0068 631A0500 		bnez	a0,.L8
 100              	.LVL6:
 101              	.L5:
  18:src/_new.cpp  **** }
 102              		.loc 1 18 1 is_stmt 0
 103 006c 83308100 		ld	ra,8(sp)
 104              		.cfi_remember_state
 105              		.cfi_restore 1
 106 0070 03340100 		ld	s0,0(sp)
 107              		.cfi_restore 8
 108              		.cfi_def_cfa 2, 16
 109 0074 13010101 		addi	sp,sp,16
 110              		.cfi_def_cfa_offset 0
 111 0078 67800000 		jr	ra
 112              	.LVL7:
 113              	.L8:
 114              		.cfi_restore_state
  17:src/_new.cpp  ****    if(sts != 0) MemoryAllocator::printString("Neka greska prilikom brisanja!\n");
 115              		.loc 1 17 17 is_stmt 1 discriminator 1
  17:src/_new.cpp  ****    if(sts != 0) MemoryAllocator::printString("Neka greska prilikom brisanja!\n");
 116              		.loc 1 17 45 is_stmt 0 discriminator 1
 117 007c 17050000 		lla	a0,.LC0
 117      13050500 
 118              	.LVL8:
 119 0084 97000000 		call	_ZN15MemoryAllocator11printStringEPKc@plt
 119      E7800000 
 120              	.LVL9:
 121              		.loc 1 18 1 discriminator 1
 122 008c 6FF01FFE 		j	.L5
 123              		.cfi_endproc
 124              	.LFE8:
 125              		.globl	__gxx_personality_v0
 126              		.section	.gcc_except_table,"a",@progbits
 127              	.LLSDA8:
 128 0000 FF       		.byte	0xff
 129 0001 FF       		.byte	0xff
 130 0002 03       		.byte	0x3
 131 0003 00       		.byte	0
 132              		.text
 134              		.align	2
 135              		.globl	_ZdaPv
 137              	_ZdaPv:
 138              	.LFB9:
  19:src/_new.cpp  **** 
  20:src/_new.cpp  **** void operator delete[](void *p) noexcept
  21:src/_new.cpp  **** {
 139              		.loc 1 21 1 is_stmt 1
 140              		.cfi_startproc
 141              		.cfi_personality 0x9b,DW.ref.__gxx_personality_v0
 142              		.cfi_lsda 0x1b,.LLSDA9
 143              	.LVL10:
 144 0090 130101FF 		addi	sp,sp,-16
 145              		.cfi_def_cfa_offset 16
 146 0094 23341100 		sd	ra,8(sp)
GAS LISTING /tmp/ccpIbeLg.s 			page 4


 147 0098 23308100 		sd	s0,0(sp)
 148              		.cfi_offset 1, -8
 149              		.cfi_offset 8, -16
 150 009c 13040101 		addi	s0,sp,16
 151              		.cfi_def_cfa 8, 0
  22:src/_new.cpp  ****     int sts = MemoryAllocator::mem_free(p);
 152              		.loc 1 22 5
 153              		.loc 1 22 40 is_stmt 0
 154 00a0 97000000 		call	_ZN15MemoryAllocator8mem_freeEPv@plt
 154      E7800000 
 155              	.LVL11:
  23:src/_new.cpp  ****     if(sts != 0) MemoryAllocator::printString("Neka greska prilikom brisanja!\n");
 156              		.loc 1 23 5 is_stmt 1
 157 00a8 631A0500 		bnez	a0,.L12
 158              	.LVL12:
 159              	.L9:
  24:src/_new.cpp  **** }...
 160              		.loc 1 24 1 is_stmt 0
 161 00ac 83308100 		ld	ra,8(sp)
 162              		.cfi_remember_state
 163              		.cfi_restore 1
 164 00b0 03340100 		ld	s0,0(sp)
 165              		.cfi_restore 8
 166              		.cfi_def_cfa 2, 16
 167 00b4 13010101 		addi	sp,sp,16
 168              		.cfi_def_cfa_offset 0
 169 00b8 67800000 		jr	ra
 170              	.LVL13:
 171              	.L12:
 172              		.cfi_restore_state
  23:src/_new.cpp  ****     if(sts != 0) MemoryAllocator::printString("Neka greska prilikom brisanja!\n");
 173              		.loc 1 23 18 is_stmt 1 discriminator 1
  23:src/_new.cpp  ****     if(sts != 0) MemoryAllocator::printString("Neka greska prilikom brisanja!\n");
 174              		.loc 1 23 46 is_stmt 0 discriminator 1
 175 00bc 17050000 		lla	a0,.LC0
 175      13050500 
 176              	.LVL14:
 177 00c4 97000000 		call	_ZN15MemoryAllocator11printStringEPKc@plt
 177      E7800000 
 178              	.LVL15:
 179              		.loc 1 24 1 discriminator 1
 180 00cc 6FF01FFE 		j	.L9
 181              		.cfi_endproc
 182              	.LFE9:
 183              		.section	.gcc_except_table
 184              	.LLSDA9:
 185 0004 FF       		.byte	0xff
 186 0005 FF       		.byte	0xff
 187 0006 03       		.byte	0x3
 188 0007 00       		.byte	0
 189              		.text
 191              	.Letext0:
 192              		.file 2 "src/../h/../lib/hw.h"
 193              		.file 3 "src/../h/MemoryAllocator.hpp"
 1597              		.align	3
 1600              	DW.ref.__gxx_personality_v0:
 1601 0000 00000000 		.dword	__gxx_personality_v0
GAS LISTING /tmp/ccpIbeLg.s 			page 5


 1601      00000000 
 1602              		.ident	"GCC: (Ubuntu 9.4.0-1ubuntu1~20.04) 9.4.0"
 1603              		.section	.note.GNU-stack,"",@progbits
GAS LISTING /tmp/ccpIbeLg.s 			page 6

