GAS LISTING /tmp/cc1ADjiT.s 			page 1


   1              		.file	"ccb.cpp"
   2              		.option pic
   3              		.option norelax
   4              		.text
   5              	.Ltext0:
   6              		.align	2
   7              		.globl	_ZN3CCB15createCoroutineEPFvvE
   9              	_ZN3CCB15createCoroutineEPFvvE:
  10              	.LFB32:
  11              		.file 1 "src/ccb.cpp"
   1:src/ccb.cpp   **** #include "../h/ccb.hpp"
   2:src/ccb.cpp   **** #include "../h/riscv.hpp"
   3:src/ccb.cpp   **** 
   4:src/ccb.cpp   **** CCB *CCB::running = nullptr;
   5:src/ccb.cpp   **** 
   6:src/ccb.cpp   **** CCB *CCB::createCoroutine(Body body)
   7:src/ccb.cpp   **** {
  12              		.loc 1 7 1
  13              		.cfi_startproc
  14              		.cfi_personality 0x9b,DW.ref.__gxx_personality_v0
  15              		.cfi_lsda 0x1b,.LLSDA32
  16              	.LVL0:
  17 0000 130101FE 		addi	sp,sp,-32
  18              		.cfi_def_cfa_offset 32
  19 0004 233C1100 		sd	ra,24(sp)
  20 0008 23388100 		sd	s0,16(sp)
  21 000c 23349100 		sd	s1,8(sp)
  22 0010 23302101 		sd	s2,0(sp)
  23              		.cfi_offset 1, -8
  24              		.cfi_offset 8, -16
  25              		.cfi_offset 9, -24
  26              		.cfi_offset 18, -32
  27 0014 13040102 		addi	s0,sp,32
  28              		.cfi_def_cfa 8, 0
  29 0018 13090500 		mv	s2,a0
   8:src/ccb.cpp   ****     return new CCB(body);
  30              		.loc 1 8 5
  31              		.loc 1 8 24 is_stmt 0
  32 001c 13058002 		li	a0,40
  33              	.LVL1:
  34              	.LEHB0:
  35 0020 97000000 		call	_Znwm@plt
  35      E7800000 
  36              	.LVL2:
  37              	.LEHE0:
  38 0028 93040500 		mv	s1,a0
  39              	.LVL3:
  40              	.LBB7:
  41              	.LBB8:
  42              		.file 2 "src/../h/ccb.hpp"
   1:src/../h/ccb.hpp **** #ifndef _CCB_H_
   2:src/../h/ccb.hpp **** #define _CCB_H_
   3:src/../h/ccb.hpp **** 
   4:src/../h/ccb.hpp **** #include "../lib/hw.h"
   5:src/../h/ccb.hpp **** #include "scheduler.hpp"
   6:src/../h/ccb.hpp **** 
   7:src/../h/ccb.hpp **** // Coroutine Control Block
GAS LISTING /tmp/cc1ADjiT.s 			page 2


   8:src/../h/ccb.hpp **** class CCB
   9:src/../h/ccb.hpp **** {
  10:src/../h/ccb.hpp **** public:
  11:src/../h/ccb.hpp ****     ~CCB() { delete[] stack; }
  12:src/../h/ccb.hpp **** 
  13:src/../h/ccb.hpp ****     bool isFinished() const { return finished; }
  14:src/../h/ccb.hpp **** 
  15:src/../h/ccb.hpp ****     void setFinished(bool value) { finished = value; }
  16:src/../h/ccb.hpp **** 
  17:src/../h/ccb.hpp ****     using Body = void (*)();
  18:src/../h/ccb.hpp **** 
  19:src/../h/ccb.hpp ****     static CCB *createCoroutine(Body body);
  20:src/../h/ccb.hpp **** 
  21:src/../h/ccb.hpp ****     static void yield();
  22:src/../h/ccb.hpp **** 
  23:src/../h/ccb.hpp ****     static CCB *running;
  24:src/../h/ccb.hpp **** 
  25:src/../h/ccb.hpp **** private:
  26:src/../h/ccb.hpp ****     explicit CCB(Body body) :
  27:src/../h/ccb.hpp ****             body(body),
  28:src/../h/ccb.hpp ****             stack(body != nullptr ? new uint64[STACK_SIZE] : nullptr),
  29:src/../h/ccb.hpp ****             context({body != nullptr ? (uint64) body : 0,
  30:src/../h/ccb.hpp ****                      stack != nullptr ? (uint64) &stack[STACK_SIZE] : 0
  31:src/../h/ccb.hpp ****                     }),
  32:src/../h/ccb.hpp ****             finished(false)
  43              		.loc 2 32 27
  44 002c 23302501 		sd	s2,0(a0)
  28:src/../h/ccb.hpp ****             context({body != nullptr ? (uint64) body : 0,
  45              		.loc 2 28 35
  46 0030 630A0900 		beqz	s2,.L7
  28:src/../h/ccb.hpp ****             context({body != nullptr ? (uint64) body : 0,
  47              		.loc 2 28 58
  48 0034 37250000 		li	a0,8192
  49              	.LEHB1:
  50 0038 97000000 		call	_Znam@plt
  50      E7800000 
  51              	.LVL4:
  52 0040 6F008000 		j	.L2
  53              	.L7:
  28:src/../h/ccb.hpp ****             context({body != nullptr ? (uint64) body : 0,
  54              		.loc 2 28 35
  55 0044 13050000 		li	a0,0
  56              	.L2:
  57              		.loc 2 32 27
  58 0048 23B4A400 		sd	a0,8(s1)
  29:src/../h/ccb.hpp ****                      stack != nullptr ? (uint64) &stack[STACK_SIZE] : 0
  59              		.loc 2 29 38
  60 004c 630A0902 		beqz	s2,.L8
  61 0050 93070900 		mv	a5,s2
  62              	.L3:
  63              		.loc 2 32 27
  64 0054 23B8F400 		sd	a5,16(s1)
  30:src/../h/ccb.hpp ****                     }),
  65              		.loc 2 30 39
  66 0058 63080502 		beqz	a0,.L9
  30:src/../h/ccb.hpp ****                     }),
  67              		.loc 2 30 50
GAS LISTING /tmp/cc1ADjiT.s 			page 3


  68 005c B7270000 		li	a5,8192
  69 0060 3305F500 		add	a0,a0,a5
  70              	.L4:
  71              		.loc 2 32 27
  72 0064 23BCA400 		sd	a0,24(s1)
  73 0068 23800402 		sb	zero,32(s1)
  33:src/../h/ccb.hpp ****     {
  34:src/../h/ccb.hpp ****         if (body != nullptr) { Scheduler::put(this); }
  74              		.loc 2 34 9 is_stmt 1
  75 006c 63000904 		beqz	s2,.L1
  76              		.loc 2 34 32
  77              		.loc 2 34 46 is_stmt 0
  78 0070 13850400 		mv	a0,s1
  79 0074 97000000 		call	_ZN9Scheduler3putEP3CCB@plt
  79      E7800000 
  80              	.LVL5:
  81              	.LEHE1:
  82 007c 6F000003 		j	.L1
  83              	.L8:
  29:src/../h/ccb.hpp ****                      stack != nullptr ? (uint64) &stack[STACK_SIZE] : 0
  84              		.loc 2 29 38
  85 0080 93070000 		li	a5,0
  86 0084 6FF01FFD 		j	.L3
  87              	.L9:
  30:src/../h/ccb.hpp ****                     }),
  88              		.loc 2 30 39
  89 0088 13050000 		li	a0,0
  90 008c 6FF09FFD 		j	.L4
  91              	.L10:
  92 0090 13090500 		mv	s2,a0
  93              	.LVL6:
  94              	.LBE8:
  95              	.LBE7:
  96              		.loc 1 8 24
  97 0094 13850400 		mv	a0,s1
  98 0098 97000000 		call	_ZdlPv@plt
  98      E7800000 
  99              	.LVL7:
 100 00a0 13050900 		mv	a0,s2
 101              	.LEHB2:
 102 00a4 97000000 		call	_Unwind_Resume@plt
 102      E7800000 
 103              	.LVL8:
 104              	.LEHE2:
 105              	.L1:
   9:src/ccb.cpp   **** }
 106              		.loc 1 9 1
 107 00ac 13850400 		mv	a0,s1
 108 00b0 83308101 		ld	ra,24(sp)
 109              		.cfi_restore 1
 110 00b4 03340101 		ld	s0,16(sp)
 111              		.cfi_restore 8
 112              		.cfi_def_cfa 2, 32
 113 00b8 83348100 		ld	s1,8(sp)
 114              		.cfi_restore 9
 115              	.LVL9:
 116 00bc 03390100 		ld	s2,0(sp)
GAS LISTING /tmp/cc1ADjiT.s 			page 4


 117              		.cfi_restore 18
 118              	.LVL10:
 119 00c0 13010102 		addi	sp,sp,32
 120              		.cfi_def_cfa_offset 0
 121 00c4 67800000 		jr	ra
 122              		.cfi_endproc
 123              	.LFE32:
 124              		.globl	__gxx_personality_v0
 125              		.section	.gcc_except_table,"a",@progbits
 126              	.LLSDA32:
 127 0000 FF       		.byte	0xff
 128 0001 FF       		.byte	0xff
 129 0002 03       		.byte	0x3
 130 0003 27       		.byte	0x27
 131 0004 00000000 		.4byte	.LEHB0-.LFB32
 132 0008 00000000 		.4byte	.LEHE0-.LEHB0
 133 000c 00000000 		.4byte	0
 134 0010 00       		.byte	0
 135 0011 00000000 		.4byte	.LEHB1-.LFB32
 136 0015 00000000 		.4byte	.LEHE1-.LEHB1
 137 0019 00000000 		.4byte	.L10-.LFB32
 138 001d 00       		.byte	0
 139 001e 00000000 		.4byte	.LEHB2-.LFB32
 140 0022 00000000 		.4byte	.LEHE2-.LEHB2
 141 0026 00000000 		.4byte	0
 142 002a 00       		.byte	0
 143              		.text
 145              		.align	2
 146              		.globl	_ZN3CCB8dispatchEv
 148              	_ZN3CCB8dispatchEv:
 149              	.LFB34:
  10:src/ccb.cpp   **** 
  11:src/ccb.cpp   **** void CCB::yield()
  12:src/ccb.cpp   **** {
  13:src/ccb.cpp   ****     Riscv::pushRegisters();
  14:src/ccb.cpp   **** 
  15:src/ccb.cpp   ****     CCB::dispatch();
  16:src/ccb.cpp   **** 
  17:src/ccb.cpp   ****     Riscv::popRegisters();
  18:src/ccb.cpp   **** }
  19:src/ccb.cpp   **** 
  20:src/ccb.cpp   **** void CCB::dispatch()
  21:src/ccb.cpp   **** {
 150              		.loc 1 21 1 is_stmt 1
 151              		.cfi_startproc
 152 00c8 130101FE 		addi	sp,sp,-32
 153              		.cfi_def_cfa_offset 32
 154 00cc 233C1100 		sd	ra,24(sp)
 155 00d0 23388100 		sd	s0,16(sp)
 156 00d4 23349100 		sd	s1,8(sp)
 157              		.cfi_offset 1, -8
 158              		.cfi_offset 8, -16
 159              		.cfi_offset 9, -24
 160 00d8 13040102 		addi	s0,sp,32
 161              		.cfi_def_cfa 8, 0
  22:src/ccb.cpp   ****     CCB *old = running;
 162              		.loc 1 22 5
GAS LISTING /tmp/cc1ADjiT.s 			page 5


 163              		.loc 1 22 10 is_stmt 0
 164 00dc 97040000 		ld	s1,.LANCHOR0
 164      83B40400 
 165              	.LVL11:
  23:src/ccb.cpp   ****     if (!old->isFinished()) { Scheduler::put(old); }
 166              		.loc 1 23 5 is_stmt 1
 167              	.LBB9:
 168              	.LBB10:
  13:src/../h/ccb.hpp **** 
 169              		.loc 2 13 31
  13:src/../h/ccb.hpp **** 
 170              		.loc 2 13 38 is_stmt 0
 171 00e4 83C70402 		lbu	a5,32(s1)
 172              	.LVL12:
 173              	.LBE10:
 174              	.LBE9:
 175              		.loc 1 23 5
 176 00e8 638C0702 		beqz	a5,.L15
 177              	.L13:
  24:src/ccb.cpp   ****     running = Scheduler::get();
 178              		.loc 1 24 5 is_stmt 1
 179              		.loc 1 24 29 is_stmt 0
 180 00ec 97000000 		call	_ZN9Scheduler3getEv@plt
 180      E7800000 
 181              	.LVL13:
 182              		.loc 1 24 13
 183 00f4 97070000 		sd	a0,.LANCHOR0,a5
 183      23B0A700 
  25:src/ccb.cpp   **** 
  26:src/ccb.cpp   ****     CCB::contextSwitch(&old->context, &running->context);
 184              		.loc 1 26 5 is_stmt 1
 185              		.loc 1 26 23 is_stmt 0
 186 00fc 93050501 		addi	a1,a0,16
 187 0100 13850401 		addi	a0,s1,16
 188 0104 97000000 		call	_ZN3CCB13contextSwitchEPNS_7ContextES1_@plt
 188      E7800000 
 189              	.LVL14:
  27:src/ccb.cpp   **** }
 190              		.loc 1 27 1
 191 010c 83308101 		ld	ra,24(sp)
 192              		.cfi_remember_state
 193              		.cfi_restore 1
 194 0110 03340101 		ld	s0,16(sp)
 195              		.cfi_restore 8
 196              		.cfi_def_cfa 2, 32
 197 0114 83348100 		ld	s1,8(sp)
 198              		.cfi_restore 9
 199              	.LVL15:
 200 0118 13010102 		addi	sp,sp,32
 201              		.cfi_def_cfa_offset 0
 202 011c 67800000 		jr	ra
 203              	.LVL16:
 204              	.L15:
 205              		.cfi_restore_state
  23:src/ccb.cpp   ****     running = Scheduler::get();
 206              		.loc 1 23 31 is_stmt 1 discriminator 1
  23:src/ccb.cpp   ****     running = Scheduler::get();
GAS LISTING /tmp/cc1ADjiT.s 			page 6


 207              		.loc 1 23 45 is_stmt 0 discriminator 1
 208 0120 13850400 		mv	a0,s1
 209 0124 97000000 		call	_ZN9Scheduler3putEP3CCB@plt
 209      E7800000 
 210              	.LVL17:
 211 012c 6FF01FFC 		j	.L13
 212              		.cfi_endproc
 213              	.LFE34:
 215              		.align	2
 216              		.globl	_ZN3CCB5yieldEv
 218              	_ZN3CCB5yieldEv:
 219              	.LFB33:
  12:src/ccb.cpp   ****     Riscv::pushRegisters();
 220              		.loc 1 12 1 is_stmt 1
 221              		.cfi_startproc
 222 0130 130101FF 		addi	sp,sp,-16
 223              		.cfi_def_cfa_offset 16
 224 0134 23341100 		sd	ra,8(sp)
 225 0138 23308100 		sd	s0,0(sp)
 226              		.cfi_offset 1, -8
 227              		.cfi_offset 8, -16
 228 013c 13040101 		addi	s0,sp,16
 229              		.cfi_def_cfa 8, 0
  13:src/ccb.cpp   **** 
 230              		.loc 1 13 5
  13:src/ccb.cpp   **** 
 231              		.loc 1 13 25 is_stmt 0
 232 0140 97000000 		call	_ZN5Riscv13pushRegistersEv@plt
 232      E7800000 
 233              	.LVL18:
  15:src/ccb.cpp   **** 
 234              		.loc 1 15 5 is_stmt 1
  15:src/ccb.cpp   **** 
 235              		.loc 1 15 18 is_stmt 0
 236 0148 97000000 		call	_ZN3CCB8dispatchEv
 236      E7800000 
 237              	.LVL19:
  17:src/ccb.cpp   **** }
 238              		.loc 1 17 5 is_stmt 1
  17:src/ccb.cpp   **** }
 239              		.loc 1 17 24 is_stmt 0
 240 0150 97000000 		call	_ZN5Riscv12popRegistersEv@plt
 240      E7800000 
 241              	.LVL20:
  18:src/ccb.cpp   **** 
 242              		.loc 1 18 1
 243 0158 83308100 		ld	ra,8(sp)
 244              		.cfi_restore 1
 245 015c 03340100 		ld	s0,0(sp)
 246              		.cfi_restore 8
 247              		.cfi_def_cfa 2, 16
 248 0160 13010101 		addi	sp,sp,16
 249              		.cfi_def_cfa_offset 0
 250 0164 67800000 		jr	ra
 251              		.cfi_endproc
 252              	.LFE33:
 254              		.globl	_ZN3CCB7runningE
GAS LISTING /tmp/cc1ADjiT.s 			page 7


 255              		.bss
 256              		.align	3
 257              		.set	.LANCHOR0,. + 0
 260              	_ZN3CCB7runningE:
 261 0000 00000000 		.zero	8
 261      00000000 
 262              		.text
 263              	.Letext0:
 264              		.file 3 "src/../h/../lib/hw.h"
 265              		.file 4 "src/../h/scheduler.hpp"
 266              		.file 5 "src/../h/riscv.hpp"
 2140              		.align	3
 2143              	DW.ref.__gxx_personality_v0:
 2144 0000 00000000 		.dword	__gxx_personality_v0
 2144      00000000 
 2145              		.ident	"GCC: (Ubuntu 9.4.0-1ubuntu1~20.04) 9.4.0"
 2146              		.section	.note.GNU-stack,"",@progbits
GAS LISTING /tmp/cc1ADjiT.s 			page 8

