GAS LISTING /tmp/cckcGT3F.s 			page 1


   1              		.file	"main.cpp"
   2              		.option pic
   3              		.option norelax
   4              		.text
   5              	.Ltext0:
   6              		.section	.rodata.str1.8,"aMS",@progbits,1
   7              		.align	3
   8              	.LC0:
   9 0000 0A00     		.string	"\n"
  10              		.text
  11              		.align	2
  12              		.globl	_Z18test_mem_allocatorv
  14              	_Z18test_mem_allocatorv:
  15              	.LFB22:
  16              		.file 1 "src/main.cpp"
   1:src/main.cpp  **** #include "../h/ccb.hpp"
   2:src/main.cpp  **** #include "../h/workers.hpp"
   3:src/main.cpp  **** #include "../h/print.hpp"
   4:src/main.cpp  **** #include "../h/MemoryAllocator.hpp"
   5:src/main.cpp  **** 
   6:src/main.cpp  **** extern void test_memory_allocator_array();
   7:src/main.cpp  **** extern void test_memory_allocator_matrix();
   8:src/main.cpp  **** 
   9:src/main.cpp  **** void test_mem_allocator()
  10:src/main.cpp  **** {
  17              		.loc 1 10 1
  18              		.cfi_startproc
  19 0000 130101FF 		addi	sp,sp,-16
  20              		.cfi_def_cfa_offset 16
  21 0004 23341100 		sd	ra,8(sp)
  22 0008 23308100 		sd	s0,0(sp)
  23              		.cfi_offset 1, -8
  24              		.cfi_offset 8, -16
  25 000c 13040101 		addi	s0,sp,16
  26              		.cfi_def_cfa 8, 0
  11:src/main.cpp  ****     test_memory_allocator_matrix();
  27              		.loc 1 11 5
  28              		.loc 1 11 33 is_stmt 0
  29 0010 97000000 		call	_Z28test_memory_allocator_matrixv@plt
  29      E7800000 
  30              	.LVL0:
  12:src/main.cpp  ****     MemoryAllocator::printString("\n");
  31              		.loc 1 12 5 is_stmt 1
  32              		.loc 1 12 33 is_stmt 0
  33 0018 17050000 		lla	a0,.LC0
  33      13050500 
  34 0020 97000000 		call	_ZN15MemoryAllocator11printStringEPKc@plt
  34      E7800000 
  35              	.LVL1:
  13:src/main.cpp  ****     test_memory_allocator_array();
  36              		.loc 1 13 5 is_stmt 1
  37              		.loc 1 13 32 is_stmt 0
  38 0028 97000000 		call	_Z27test_memory_allocator_arrayv@plt
  38      E7800000 
  39              	.LVL2:
  14:src/main.cpp  **** 
  15:src/main.cpp  **** }
GAS LISTING /tmp/cckcGT3F.s 			page 2


  40              		.loc 1 15 1
  41 0030 83308100 		ld	ra,8(sp)
  42              		.cfi_restore 1
  43 0034 03340100 		ld	s0,0(sp)
  44              		.cfi_restore 8
  45              		.cfi_def_cfa 2, 16
  46 0038 13010101 		addi	sp,sp,16
  47              		.cfi_def_cfa_offset 0
  48 003c 67800000 		jr	ra
  49              		.cfi_endproc
  50              	.LFE22:
  52              		.section	.rodata.str1.8
  53 0002 00000000 		.align	3
  53      0000
  54              	.LC1:
  55 0008 436F726F 		.string	"CoroutineA created\n"
  55      7574696E 
  55      65412063 
  55      72656174 
  55      65640A00 
  56 001c 00000000 		.align	3
  57              	.LC2:
  58 0020 436F726F 		.string	"CoroutineB created\n"
  58      7574696E 
  58      65422063 
  58      72656174 
  58      65640A00 
  59 0034 00000000 		.align	3
  60              	.LC3:
  61 0038 46696E69 		.string	"Finished\n"
  61      73686564 
  61      0A00
  62              		.text
  63              		.align	2
  64              		.globl	main
  66              	main:
  67              	.LFB23:
  16:src/main.cpp  **** 
  17:src/main.cpp  **** int main()
  18:src/main.cpp  **** {
  68              		.loc 1 18 1 is_stmt 1
  69              		.cfi_startproc
  70 0040 130101FC 		addi	sp,sp,-64
  71              		.cfi_def_cfa_offset 64
  72 0044 233C1102 		sd	ra,56(sp)
  73 0048 23388102 		sd	s0,48(sp)
  74 004c 23349102 		sd	s1,40(sp)
  75 0050 23302103 		sd	s2,32(sp)
  76              		.cfi_offset 1, -8
  77              		.cfi_offset 8, -16
  78              		.cfi_offset 9, -24
  79              		.cfi_offset 18, -32
  80 0054 13040104 		addi	s0,sp,64
  81              		.cfi_def_cfa 8, 0
  19:src/main.cpp  ****     CCB *coroutines[3];
  82              		.loc 1 19 5
  20:src/main.cpp  ****     MemoryAllocator::mem_init();
GAS LISTING /tmp/cckcGT3F.s 			page 3


  83              		.loc 1 20 5
  84              		.loc 1 20 30 is_stmt 0
  85 0058 97000000 		call	_ZN15MemoryAllocator8mem_initEv@plt
  85      E7800000 
  86              	.LVL3:
  21:src/main.cpp  ****     coroutines[0] = CCB::createCoroutine(nullptr);
  87              		.loc 1 21 5 is_stmt 1
  88              		.loc 1 21 41 is_stmt 0
  89 0060 13050000 		li	a0,0
  90 0064 97000000 		call	_ZN3CCB15createCoroutineEPFvvE@plt
  90      E7800000 
  91              	.LVL4:
  92              		.loc 1 21 19
  93 006c 2334A4FC 		sd	a0,-56(s0)
  22:src/main.cpp  ****     CCB::running = coroutines[0];
  94              		.loc 1 22 5 is_stmt 1
  95              		.loc 1 22 18 is_stmt 0
  96 0070 97070000 		la	a5,_ZN3CCB7runningE
  96      83B70700 
  97 0078 23B0A700 		sd	a0,0(a5)
  23:src/main.cpp  **** 
  24:src/main.cpp  ****     coroutines[1] = CCB::createCoroutine(workerBodyA);
  98              		.loc 1 24 5 is_stmt 1
  99              		.loc 1 24 41 is_stmt 0
 100 007c 17050000 		la	a0,_Z11workerBodyAv
 100      03350500 
 101 0084 97000000 		call	_ZN3CCB15createCoroutineEPFvvE@plt
 101      E7800000 
 102              	.LVL5:
 103              		.loc 1 24 19
 104 008c 2338A4FC 		sd	a0,-48(s0)
  25:src/main.cpp  ****     printString("CoroutineA created\n");
 105              		.loc 1 25 5 is_stmt 1
 106              		.loc 1 25 16 is_stmt 0
 107 0090 17050000 		lla	a0,.LC1
 107      13050500 
 108 0098 97000000 		call	_Z11printStringPKc@plt
 108      E7800000 
 109              	.LVL6:
  26:src/main.cpp  ****     coroutines[2] = CCB::createCoroutine(workerBodyB);
 110              		.loc 1 26 5 is_stmt 1
 111              		.loc 1 26 41 is_stmt 0
 112 00a0 17050000 		la	a0,_Z11workerBodyBv
 112      03350500 
 113 00a8 97000000 		call	_ZN3CCB15createCoroutineEPFvvE@plt
 113      E7800000 
 114              	.LVL7:
 115              		.loc 1 26 19
 116 00b0 233CA4FC 		sd	a0,-40(s0)
  27:src/main.cpp  ****     printString("CoroutineB created\n");
 117              		.loc 1 27 5 is_stmt 1
 118              		.loc 1 27 16 is_stmt 0
 119 00b4 17050000 		lla	a0,.LC2
 119      13050500 
 120 00bc 97000000 		call	_Z11printStringPKc@plt
 120      E7800000 
 121              	.LVL8:
GAS LISTING /tmp/cckcGT3F.s 			page 4


 122 00c4 6F00C000 		j	.L6
 123              	.L4:
  28:src/main.cpp  **** 
  29:src/main.cpp  ****     while (!(coroutines[1]->isFinished() &&
  30:src/main.cpp  ****              coroutines[2]->isFinished()))
  31:src/main.cpp  ****     {
  32:src/main.cpp  ****         CCB::yield();
 124              		.loc 1 32 9 is_stmt 1 discriminator 3
 125              		.loc 1 32 19 is_stmt 0 discriminator 3
 126 00c8 97000000 		call	_ZN3CCB5yieldEv@plt
 126      E7800000 
 127              	.LVL9:
 128              	.L6:
  29:src/main.cpp  ****              coroutines[2]->isFinished()))
 129              		.loc 1 29 5 is_stmt 1
  29:src/main.cpp  ****              coroutines[2]->isFinished()))
 130              		.loc 1 29 12
  29:src/main.cpp  ****              coroutines[2]->isFinished()))
 131              		.loc 1 29 26 is_stmt 0
 132 00d0 833704FD 		ld	a5,-48(s0)
 133              	.LVL10:
 134              	.LBB10:
 135              	.LBB11:
 136              		.file 2 "src/../h/ccb.hpp"
   1:src/../h/ccb.hpp **** #ifndef _CCB_H_
   2:src/../h/ccb.hpp **** #define _CCB_H_
   3:src/../h/ccb.hpp **** 
   4:src/../h/ccb.hpp **** #include "../lib/hw.h"
   5:src/../h/ccb.hpp **** #include "scheduler.hpp"
   6:src/../h/ccb.hpp **** 
   7:src/../h/ccb.hpp **** // Coroutine Control Block
   8:src/../h/ccb.hpp **** class CCB
   9:src/../h/ccb.hpp **** {
  10:src/../h/ccb.hpp **** public:
  11:src/../h/ccb.hpp ****     ~CCB() { delete[] stack; }
  12:src/../h/ccb.hpp **** 
  13:src/../h/ccb.hpp ****     bool isFinished() const { return finished; }
 137              		.loc 2 13 31 is_stmt 1
 138              		.loc 2 13 38 is_stmt 0
 139 00d4 83C70702 		lbu	a5,32(a5)
 140              	.LVL11:
 141              	.LBE11:
 142              	.LBE10:
  29:src/main.cpp  ****              coroutines[2]->isFinished()))
 143              		.loc 1 29 12
 144 00d8 E38807FE 		beqz	a5,.L4
  30:src/main.cpp  ****     {
 145              		.loc 1 30 26 discriminator 2
 146 00dc 833784FD 		ld	a5,-40(s0)
 147              	.LVL12:
 148              	.LBB12:
 149              	.LBB13:
 150              		.loc 2 13 31 is_stmt 1 discriminator 2
 151              		.loc 2 13 38 is_stmt 0 discriminator 2
 152 00e0 83C70702 		lbu	a5,32(a5)
 153              	.LVL13:
 154              	.LBE13:
GAS LISTING /tmp/cckcGT3F.s 			page 5


 155              	.LBE12:
  29:src/main.cpp  ****              coroutines[2]->isFinished()))
 156              		.loc 1 29 12 discriminator 2
 157 00e4 E38207FE 		beqz	a5,.L4
 158 00e8 930484FC 		addi	s1,s0,-56
 159 00ec 6F004001 		j	.L5
 160              	.LVL14:
 161              	.L9:
 162              	.LBB14:
  33:src/main.cpp  ****     }
  34:src/main.cpp  **** 
  35:src/main.cpp  ****     for (auto &coroutine: coroutines)
  36:src/main.cpp  ****     {
  37:src/main.cpp  ****         delete coroutine;
 163              		.loc 1 37 16
 164 00f0 13050900 		mv	a0,s2
 165 00f4 97000000 		call	_ZdlPv@plt
 165      E7800000 
 166              	.LVL15:
 167              	.L8:
  35:src/main.cpp  ****     {
 168              		.loc 1 35 5 is_stmt 1 discriminator 3
 169 00fc 93848400 		addi	s1,s1,8
 170              	.LVL16:
 171              	.L5:
  35:src/main.cpp  ****     {
 172              		.loc 1 35 27 discriminator 1
 173 0100 930704FE 		addi	a5,s0,-32
 174 0104 6380F402 		beq	s1,a5,.L7
 175              	.LVL17:
 176              		.loc 1 37 9 discriminator 2
 177              		.loc 1 37 16 is_stmt 0 discriminator 2
 178 0108 03B90400 		ld	s2,0(s1)
 179              		.loc 1 37 25 discriminator 2
 180 010c E30809FE 		beqz	s2,.L8
 181              	.LVL18:
 182              	.LBB15:
 183              	.LBB16:
  11:src/../h/ccb.hpp **** 
 184              		.loc 2 11 14 is_stmt 1
  11:src/../h/ccb.hpp **** 
 185              		.loc 2 11 23 is_stmt 0
 186 0110 03358900 		ld	a0,8(s2)
  11:src/../h/ccb.hpp **** 
 187              		.loc 2 11 28
 188 0114 E30E05FC 		beqz	a0,.L9
  11:src/../h/ccb.hpp **** 
 189              		.loc 2 11 23
 190 0118 97000000 		call	_ZdaPv@plt
 190      E7800000 
 191              	.LVL19:
 192 0120 6FF01FFD 		j	.L9
 193              	.LVL20:
 194              	.L7:
 195              	.LBE16:
 196              	.LBE15:
 197              	.LBE14:
GAS LISTING /tmp/cckcGT3F.s 			page 6


  38:src/main.cpp  ****     }
  39:src/main.cpp  ****     printString("Finished\n");
 198              		.loc 1 39 5 is_stmt 1
 199              		.loc 1 39 16 is_stmt 0
 200 0124 17050000 		lla	a0,.LC3
 200      13050500 
 201 012c 97000000 		call	_Z11printStringPKc@plt
 201      E7800000 
 202              	.LVL21:
  40:src/main.cpp  **** 
  41:src/main.cpp  ****     return 0;
 203              		.loc 1 41 5 is_stmt 1
  42:src/main.cpp  **** }
 204              		.loc 1 42 1 is_stmt 0
 205 0134 13050000 		li	a0,0
 206 0138 83308103 		ld	ra,56(sp)
 207              		.cfi_restore 1
 208 013c 03340103 		ld	s0,48(sp)
 209              		.cfi_restore 8
 210              		.cfi_def_cfa 2, 64
 211 0140 83348102 		ld	s1,40(sp)
 212              		.cfi_restore 9
 213              	.LVL22:
 214 0144 03390102 		ld	s2,32(sp)
 215              		.cfi_restore 18
 216 0148 13010104 		addi	sp,sp,64
 217              		.cfi_def_cfa_offset 0
 218 014c 67800000 		jr	ra
 219              		.cfi_endproc
 220              	.LFE23:
 222              	.Letext0:
 223              		.file 3 "src/../h/../lib/hw.h"
 224              		.file 4 "src/../h/MemoryAllocator.hpp"
 225              		.file 5 "src/../h/print.hpp"
GAS LISTING /tmp/cckcGT3F.s 			page 7

