GAS LISTING /tmp/ccjmi8As.s 			page 1


   1              		.file	"workers.cpp"
   2              		.option pic
   3              		.option norelax
   4              		.text
   5              	.Ltext0:
   6              		.align	2
   8              	_ZL9fibonaccim:
   9              	.LFB16:
  10              		.file 1 "src/workers.cpp"
   1:src/workers.cpp **** #include "../lib/hw.h"
   2:src/workers.cpp **** #include "../h/ccb.hpp"
   3:src/workers.cpp **** #include "../h/print.hpp"
   4:src/workers.cpp **** 
   5:src/workers.cpp **** static uint64 fibonacci(uint64 n)
   6:src/workers.cpp **** {
  11              		.loc 1 6 1
  12              		.cfi_startproc
  13              	.LVL0:
  14 0000 130101FE 		addi	sp,sp,-32
  15              		.cfi_def_cfa_offset 32
  16 0004 233C1100 		sd	ra,24(sp)
  17 0008 23388100 		sd	s0,16(sp)
  18 000c 23349100 		sd	s1,8(sp)
  19 0010 23302101 		sd	s2,0(sp)
  20              		.cfi_offset 1, -8
  21              		.cfi_offset 8, -16
  22              		.cfi_offset 9, -24
  23              		.cfi_offset 18, -32
  24 0014 13040102 		addi	s0,sp,32
  25              		.cfi_def_cfa 8, 0
  26 0018 93040500 		mv	s1,a0
   7:src/workers.cpp ****     if (n == 0 || n == 1) { return n; }
  27              		.loc 1 7 5
  28 001c 93071000 		li	a5,1
  29 0020 63F6A702 		bleu	a0,a5,.L1
   8:src/workers.cpp ****     if (n % 4 == 0) CCB::yield();
  30              		.loc 1 8 5
  31              		.loc 1 8 11 is_stmt 0
  32 0024 93773500 		andi	a5,a0,3
  33              		.loc 1 8 5
  34 0028 638E0702 		beqz	a5,.L6
  35              	.LVL1:
  36              	.L3:
   9:src/workers.cpp ****     return fibonacci(n - 1) + fibonacci(n - 2);
  37              		.loc 1 9 5 is_stmt 1
  38              		.loc 1 9 21 is_stmt 0
  39 002c 1385F4FF 		addi	a0,s1,-1
  40 0030 97000000 		call	_ZL9fibonaccim
  40      E7800000 
  41              	.LVL2:
  42 0038 13090500 		mv	s2,a0
  43              		.loc 1 9 40
  44 003c 1385E4FF 		addi	a0,s1,-2
  45 0040 97000000 		call	_ZL9fibonaccim
  45      E7800000 
  46              	.LVL3:
  47              		.loc 1 9 46
GAS LISTING /tmp/ccjmi8As.s 			page 2


  48 0048 3305A900 		add	a0,s2,a0
  49              	.L1:
  10:src/workers.cpp **** }
  50              		.loc 1 10 1
  51 004c 83308101 		ld	ra,24(sp)
  52              		.cfi_remember_state
  53              		.cfi_restore 1
  54 0050 03340101 		ld	s0,16(sp)
  55              		.cfi_restore 8
  56              		.cfi_def_cfa 2, 32
  57 0054 83348100 		ld	s1,8(sp)
  58              		.cfi_restore 9
  59              	.LVL4:
  60 0058 03390100 		ld	s2,0(sp)
  61              		.cfi_restore 18
  62 005c 13010102 		addi	sp,sp,32
  63              		.cfi_def_cfa_offset 0
  64 0060 67800000 		jr	ra
  65              	.LVL5:
  66              	.L6:
  67              		.cfi_restore_state
   8:src/workers.cpp ****     if (n % 4 == 0) CCB::yield();
  68              		.loc 1 8 21 is_stmt 1 discriminator 1
   8:src/workers.cpp ****     if (n % 4 == 0) CCB::yield();
  69              		.loc 1 8 31 is_stmt 0 discriminator 1
  70 0064 97000000 		call	_ZN3CCB5yieldEv@plt
  70      E7800000 
  71              	.LVL6:
  72 006c 6FF01FFC 		j	.L3
  73              		.cfi_endproc
  74              	.LFE16:
  76              		.section	.rodata.str1.8,"aMS",@progbits,1
  77              		.align	3
  78              	.LC0:
  79 0000 413A2069 		.string	"A: i="
  79      3D00
  80 0006 0000     		.align	3
  81              	.LC1:
  82 0008 0A00     		.string	"\n"
  83 000a 00000000 		.align	3
  83      0000
  84              	.LC2:
  85 0010 413A2079 		.string	"A: yield\n"
  85      69656C64 
  85      0A00
  86 001a 00000000 		.align	3
  86      0000
  87              	.LC3:
  88 0020 413A2074 		.string	"A: t1="
  88      313D00
  89 0027 00       		.align	3
  90              	.LC4:
  91 0028 413A2066 		.string	"A: fibonaci="
  91      69626F6E 
  91      6163693D 
  91      00
  92              		.text
GAS LISTING /tmp/ccjmi8As.s 			page 3


  93              		.align	2
  94              		.globl	_Z11workerBodyAv
  96              	_Z11workerBodyAv:
  97              	.LFB17:
  11:src/workers.cpp **** 
  12:src/workers.cpp **** void workerBodyA()
  13:src/workers.cpp **** {
  98              		.loc 1 13 1 is_stmt 1
  99              		.cfi_startproc
 100 0070 130101FE 		addi	sp,sp,-32
 101              		.cfi_def_cfa_offset 32
 102 0074 233C1100 		sd	ra,24(sp)
 103 0078 23388100 		sd	s0,16(sp)
 104 007c 23349100 		sd	s1,8(sp)
 105 0080 23302101 		sd	s2,0(sp)
 106              		.cfi_offset 1, -8
 107              		.cfi_offset 8, -16
 108              		.cfi_offset 9, -24
 109              		.cfi_offset 18, -32
 110 0084 13040102 		addi	s0,sp,32
 111              		.cfi_def_cfa 8, 0
  14:src/workers.cpp ****     uint8 i = 0;
 112              		.loc 1 14 5
 113              	.LVL7:
 114              		.loc 1 14 11 is_stmt 0
 115 0088 93040000 		li	s1,0
 116 008c 6F008003 		j	.L9
 117              	.LVL8:
 118              	.L13:
  15:src/workers.cpp ****     for (; i < 3; i++)
  16:src/workers.cpp ****     {
  17:src/workers.cpp ****         printString("A: i=");
 119              		.loc 1 17 9 is_stmt 1 discriminator 1
 120              		.loc 1 17 20 is_stmt 0 discriminator 1
 121 0090 17050000 		lla	a0,.LC0
 121      13050500 
 122 0098 97000000 		call	_Z11printStringPKc@plt
 122      E7800000 
 123              	.LVL9:
  18:src/workers.cpp ****         printInteger(i);
 124              		.loc 1 18 9 is_stmt 1 discriminator 1
 125              		.loc 1 18 21 is_stmt 0 discriminator 1
 126 00a0 13850400 		mv	a0,s1
 127 00a4 97000000 		call	_Z12printIntegerm@plt
 127      E7800000 
 128              	.LVL10:
  19:src/workers.cpp ****         printString("\n");
 129              		.loc 1 19 9 is_stmt 1 discriminator 1
 130              		.loc 1 19 20 is_stmt 0 discriminator 1
 131 00ac 17050000 		lla	a0,.LC1
 131      13050500 
 132 00b4 97000000 		call	_Z11printStringPKc@plt
 132      E7800000 
 133              	.LVL11:
  15:src/workers.cpp ****     for (; i < 3; i++)
 134              		.loc 1 15 5 is_stmt 1 discriminator 1
 135 00bc 9B841400 		addiw	s1,s1,1
GAS LISTING /tmp/ccjmi8As.s 			page 4


 136              	.LVL12:
 137 00c0 93F4F40F 		andi	s1,s1,0xff
 138              	.LVL13:
 139              	.L9:
  15:src/workers.cpp ****     for (; i < 3; i++)
 140              		.loc 1 15 5 discriminator 2
  15:src/workers.cpp ****     for (; i < 3; i++)
 141              		.loc 1 15 14 discriminator 2
 142 00c4 93072000 		li	a5,2
 143 00c8 E3F497FC 		bleu	s1,a5,.L13
  20:src/workers.cpp ****     }
  21:src/workers.cpp **** 
  22:src/workers.cpp ****     printString("A: yield\n");
 144              		.loc 1 22 5
 145              		.loc 1 22 16 is_stmt 0
 146 00cc 17050000 		lla	a0,.LC2
 146      13050500 
 147 00d4 97000000 		call	_Z11printStringPKc@plt
 147      E7800000 
 148              	.LVL14:
  23:src/workers.cpp ****     __asm__ ("li t1, 7");
 149              		.loc 1 23 5 is_stmt 1
 150              		.loc 1 23 25 is_stmt 0
 151              	#APP
 152              	# 23 "src/workers.cpp" 1
  24              	    CCB::yield();
 153              		li t1, 7
 154              	# 0 "" 2
 155              		.loc 1 24 5 is_stmt 1
 156              		.loc 1 24 15 is_stmt 0
 157              	#NO_APP
 158 00e0 97000000 		call	_ZN3CCB5yieldEv@plt
 158      E7800000 
 159              	.LVL15:
  25:src/workers.cpp **** 
  26:src/workers.cpp ****     uint64 t1 = 0;
 160              		.loc 1 26 5 is_stmt 1
  27:src/workers.cpp ****     __asm__ ("mv %[t1], t1" : [t1] "=r"(t1));
 161              		.loc 1 27 5
 162              		.loc 1 27 45 is_stmt 0
 163              	#APP
 164              	# 27 "src/workers.cpp" 1
  28              	
 165              		mv s2, t1
 166              	# 0 "" 2
 167              	.LVL16:
  29:src/workers.cpp ****     printString("A: t1=");
 168              		.loc 1 29 5 is_stmt 1
 169              		.loc 1 29 16 is_stmt 0
 170              	#NO_APP
 171 00ec 17050000 		lla	a0,.LC3
 171      13050500 
 172 00f4 97000000 		call	_Z11printStringPKc@plt
 172      E7800000 
 173              	.LVL17:
  30:src/workers.cpp ****     printInteger(t1);
 174              		.loc 1 30 5 is_stmt 1
GAS LISTING /tmp/ccjmi8As.s 			page 5


 175              		.loc 1 30 17 is_stmt 0
 176 00fc 13050900 		mv	a0,s2
 177 0100 97000000 		call	_Z12printIntegerm@plt
 177      E7800000 
 178              	.LVL18:
  31:src/workers.cpp ****     printString("\n");
 179              		.loc 1 31 5 is_stmt 1
 180              		.loc 1 31 16 is_stmt 0
 181 0108 17050000 		lla	a0,.LC1
 181      13050500 
 182 0110 97000000 		call	_Z11printStringPKc@plt
 182      E7800000 
 183              	.LVL19:
  32:src/workers.cpp **** 
  33:src/workers.cpp ****     uint64 result = fibonacci(20);
 184              		.loc 1 33 5 is_stmt 1
 185              		.loc 1 33 30 is_stmt 0
 186 0118 13054001 		li	a0,20
 187 011c 97000000 		call	_ZL9fibonaccim
 187      E7800000 
 188              	.LVL20:
 189 0124 13090500 		mv	s2,a0
 190              	.LVL21:
  34:src/workers.cpp ****     printString("A: fibonaci=");
 191              		.loc 1 34 5 is_stmt 1
 192              		.loc 1 34 16 is_stmt 0
 193 0128 17050000 		lla	a0,.LC4
 193      13050500 
 194              	.LVL22:
 195 0130 97000000 		call	_Z11printStringPKc@plt
 195      E7800000 
 196              	.LVL23:
  35:src/workers.cpp ****     printInteger(result);
 197              		.loc 1 35 5 is_stmt 1
 198              		.loc 1 35 17 is_stmt 0
 199 0138 13050900 		mv	a0,s2
 200 013c 97000000 		call	_Z12printIntegerm@plt
 200      E7800000 
 201              	.LVL24:
  36:src/workers.cpp ****     printString("\n");
 202              		.loc 1 36 5 is_stmt 1
 203              		.loc 1 36 16 is_stmt 0
 204 0144 17050000 		lla	a0,.LC1
 204      13050500 
 205 014c 97000000 		call	_Z11printStringPKc@plt
 205      E7800000 
 206              	.LVL25:
 207 0154 6F008003 		j	.L11
 208              	.L14:
  37:src/workers.cpp **** 
  38:src/workers.cpp ****     for (; i < 6; i++)
  39:src/workers.cpp ****     {
  40:src/workers.cpp ****         printString("A: i=");
 209              		.loc 1 40 9 is_stmt 1 discriminator 1
 210              		.loc 1 40 20 is_stmt 0 discriminator 1
 211 0158 17050000 		lla	a0,.LC0
 211      13050500 
GAS LISTING /tmp/ccjmi8As.s 			page 6


 212 0160 97000000 		call	_Z11printStringPKc@plt
 212      E7800000 
 213              	.LVL26:
  41:src/workers.cpp ****         printInteger(i);
 214              		.loc 1 41 9 is_stmt 1 discriminator 1
 215              		.loc 1 41 21 is_stmt 0 discriminator 1
 216 0168 13850400 		mv	a0,s1
 217 016c 97000000 		call	_Z12printIntegerm@plt
 217      E7800000 
 218              	.LVL27:
  42:src/workers.cpp ****         printString("\n");
 219              		.loc 1 42 9 is_stmt 1 discriminator 1
 220              		.loc 1 42 20 is_stmt 0 discriminator 1
 221 0174 17050000 		lla	a0,.LC1
 221      13050500 
 222 017c 97000000 		call	_Z11printStringPKc@plt
 222      E7800000 
 223              	.LVL28:
  38:src/workers.cpp ****     {
 224              		.loc 1 38 5 is_stmt 1 discriminator 1
 225 0184 9B841400 		addiw	s1,s1,1
 226              	.LVL29:
 227 0188 93F4F40F 		andi	s1,s1,0xff
 228              	.LVL30:
 229              	.L11:
  38:src/workers.cpp ****     {
 230              		.loc 1 38 5 discriminator 2
  38:src/workers.cpp ****     {
 231              		.loc 1 38 14 discriminator 2
 232 018c 93075000 		li	a5,5
 233 0190 E3F497FC 		bleu	s1,a5,.L14
  43:src/workers.cpp ****     }
  44:src/workers.cpp **** 
  45:src/workers.cpp ****     CCB::running->setFinished(true);
 234              		.loc 1 45 5
 235              		.loc 1 45 30 is_stmt 0
 236 0194 97070000 		la	a5,_ZN3CCB7runningE
 236      83B70700 
 237 019c 83B70700 		ld	a5,0(a5)
 238              	.LVL31:
 239              	.LBB6:
 240              	.LBB7:
 241              		.file 2 "src/../h/ccb.hpp"
   1:src/../h/ccb.hpp **** #ifndef _CCB_H_
   2:src/../h/ccb.hpp **** #define _CCB_H_
   3:src/../h/ccb.hpp **** 
   4:src/../h/ccb.hpp **** #include "../lib/hw.h"
   5:src/../h/ccb.hpp **** #include "scheduler.hpp"
   6:src/../h/ccb.hpp **** 
   7:src/../h/ccb.hpp **** // Coroutine Control Block
   8:src/../h/ccb.hpp **** class CCB
   9:src/../h/ccb.hpp **** {
  10:src/../h/ccb.hpp **** public:
  11:src/../h/ccb.hpp ****     ~CCB() { delete[] stack; }
  12:src/../h/ccb.hpp **** 
  13:src/../h/ccb.hpp ****     bool isFinished() const { return finished; }
  14:src/../h/ccb.hpp **** 
GAS LISTING /tmp/ccjmi8As.s 			page 7


  15:src/../h/ccb.hpp ****     void setFinished(bool value) { finished = value; }
 242              		.loc 2 15 36 is_stmt 1
 243              		.loc 2 15 45 is_stmt 0
 244 01a0 13071000 		li	a4,1
 245 01a4 2380E702 		sb	a4,32(a5)
 246              	.LVL32:
 247              	.LBE7:
 248              	.LBE6:
  46:src/workers.cpp ****     CCB::yield();
 249              		.loc 1 46 5 is_stmt 1
 250              		.loc 1 46 15 is_stmt 0
 251 01a8 97000000 		call	_ZN3CCB5yieldEv@plt
 251      E7800000 
 252              	.LVL33:
  47:src/workers.cpp **** }
 253              		.loc 1 47 1
 254 01b0 83308101 		ld	ra,24(sp)
 255              		.cfi_restore 1
 256 01b4 03340101 		ld	s0,16(sp)
 257              		.cfi_restore 8
 258              		.cfi_def_cfa 2, 32
 259 01b8 83348100 		ld	s1,8(sp)
 260              		.cfi_restore 9
 261              	.LVL34:
 262 01bc 03390100 		ld	s2,0(sp)
 263              		.cfi_restore 18
 264              	.LVL35:
 265 01c0 13010102 		addi	sp,sp,32
 266              		.cfi_def_cfa_offset 0
 267 01c4 67800000 		jr	ra
 268              		.cfi_endproc
 269              	.LFE17:
 271              		.section	.rodata.str1.8
 272 0035 000000   		.align	3
 273              	.LC5:
 274 0038 423A2069 		.string	"B: i="
 274      3D00
 275 003e 0000     		.align	3
 276              	.LC6:
 277 0040 423A2079 		.string	"B: yield\n"
 277      69656C64 
 277      0A00
 278              		.text
 279              		.align	2
 280              		.globl	_Z11workerBodyBv
 282              	_Z11workerBodyBv:
 283              	.LFB18:
  48:src/workers.cpp **** 
  49:src/workers.cpp **** void workerBodyB()
  50:src/workers.cpp **** {
 284              		.loc 1 50 1 is_stmt 1
 285              		.cfi_startproc
 286 01c8 130101FE 		addi	sp,sp,-32
 287              		.cfi_def_cfa_offset 32
 288 01cc 233C1100 		sd	ra,24(sp)
 289 01d0 23388100 		sd	s0,16(sp)
 290 01d4 23349100 		sd	s1,8(sp)
GAS LISTING /tmp/ccjmi8As.s 			page 8


 291 01d8 23302101 		sd	s2,0(sp)
 292              		.cfi_offset 1, -8
 293              		.cfi_offset 8, -16
 294              		.cfi_offset 9, -24
 295              		.cfi_offset 18, -32
 296 01dc 13040102 		addi	s0,sp,32
 297              		.cfi_def_cfa 8, 0
  51:src/workers.cpp ****     uint8 i = 10;
 298              		.loc 1 51 5
 299              	.LVL36:
 300              		.loc 1 51 11 is_stmt 0
 301 01e0 9304A000 		li	s1,10
 302 01e4 6F008003 		j	.L17
 303              	.LVL37:
 304              	.L21:
  52:src/workers.cpp ****     for (; i < 13; i++)
  53:src/workers.cpp ****     {
  54:src/workers.cpp ****         printString("B: i=");
 305              		.loc 1 54 9 is_stmt 1 discriminator 1
 306              		.loc 1 54 20 is_stmt 0 discriminator 1
 307 01e8 17050000 		lla	a0,.LC5
 307      13050500 
 308 01f0 97000000 		call	_Z11printStringPKc@plt
 308      E7800000 
 309              	.LVL38:
  55:src/workers.cpp ****         printInteger(i);
 310              		.loc 1 55 9 is_stmt 1 discriminator 1
 311              		.loc 1 55 21 is_stmt 0 discriminator 1
 312 01f8 13850400 		mv	a0,s1
 313 01fc 97000000 		call	_Z12printIntegerm@plt
 313      E7800000 
 314              	.LVL39:
  56:src/workers.cpp ****         printString("\n");
 315              		.loc 1 56 9 is_stmt 1 discriminator 1
 316              		.loc 1 56 20 is_stmt 0 discriminator 1
 317 0204 17050000 		lla	a0,.LC1
 317      13050500 
 318 020c 97000000 		call	_Z11printStringPKc@plt
 318      E7800000 
 319              	.LVL40:
  52:src/workers.cpp ****     for (; i < 13; i++)
 320              		.loc 1 52 5 is_stmt 1 discriminator 1
 321 0214 9B841400 		addiw	s1,s1,1
 322              	.LVL41:
 323 0218 93F4F40F 		andi	s1,s1,0xff
 324              	.LVL42:
 325              	.L17:
  52:src/workers.cpp ****     for (; i < 13; i++)
 326              		.loc 1 52 5 discriminator 2
  52:src/workers.cpp ****     for (; i < 13; i++)
 327              		.loc 1 52 14 discriminator 2
 328 021c 9307C000 		li	a5,12
 329 0220 E3F497FC 		bleu	s1,a5,.L21
  57:src/workers.cpp ****     }
  58:src/workers.cpp **** 
  59:src/workers.cpp ****     printString("B: yield\n");
 330              		.loc 1 59 5
GAS LISTING /tmp/ccjmi8As.s 			page 9


 331              		.loc 1 59 16 is_stmt 0
 332 0224 17050000 		lla	a0,.LC6
 332      13050500 
 333 022c 97000000 		call	_Z11printStringPKc@plt
 333      E7800000 
 334              	.LVL43:
  60:src/workers.cpp ****     __asm__ ("li t1, 5");
 335              		.loc 1 60 5 is_stmt 1
 336              		.loc 1 60 25 is_stmt 0
 337              	#APP
 338              	# 60 "src/workers.cpp" 1
  61              	    CCB::yield();
 339              		li t1, 5
 340              	# 0 "" 2
 341              		.loc 1 61 5 is_stmt 1
 342              		.loc 1 61 15 is_stmt 0
 343              	#NO_APP
 344 0238 97000000 		call	_ZN3CCB5yieldEv@plt
 344      E7800000 
 345              	.LVL44:
  62:src/workers.cpp **** 
  63:src/workers.cpp ****     uint64 result = fibonacci(23);
 346              		.loc 1 63 5 is_stmt 1
 347              		.loc 1 63 30 is_stmt 0
 348 0240 13057001 		li	a0,23
 349 0244 97000000 		call	_ZL9fibonaccim
 349      E7800000 
 350              	.LVL45:
 351 024c 13090500 		mv	s2,a0
 352              	.LVL46:
  64:src/workers.cpp ****     printString("A: fibonaci=");
 353              		.loc 1 64 5 is_stmt 1
 354              		.loc 1 64 16 is_stmt 0
 355 0250 17050000 		lla	a0,.LC4
 355      13050500 
 356              	.LVL47:
 357 0258 97000000 		call	_Z11printStringPKc@plt
 357      E7800000 
 358              	.LVL48:
  65:src/workers.cpp ****     printInteger(result);
 359              		.loc 1 65 5 is_stmt 1
 360              		.loc 1 65 17 is_stmt 0
 361 0260 13050900 		mv	a0,s2
 362 0264 97000000 		call	_Z12printIntegerm@plt
 362      E7800000 
 363              	.LVL49:
  66:src/workers.cpp ****     printString("\n");
 364              		.loc 1 66 5 is_stmt 1
 365              		.loc 1 66 16 is_stmt 0
 366 026c 17050000 		lla	a0,.LC1
 366      13050500 
 367 0274 97000000 		call	_Z11printStringPKc@plt
 367      E7800000 
 368              	.LVL50:
 369 027c 6F008003 		j	.L19
 370              	.L22:
  67:src/workers.cpp **** 
GAS LISTING /tmp/ccjmi8As.s 			page 10


  68:src/workers.cpp ****     for (; i < 16; i++)
  69:src/workers.cpp ****     {
  70:src/workers.cpp ****         printString("B: i=");
 371              		.loc 1 70 9 is_stmt 1 discriminator 1
 372              		.loc 1 70 20 is_stmt 0 discriminator 1
 373 0280 17050000 		lla	a0,.LC5
 373      13050500 
 374 0288 97000000 		call	_Z11printStringPKc@plt
 374      E7800000 
 375              	.LVL51:
  71:src/workers.cpp ****         printInteger(i);
 376              		.loc 1 71 9 is_stmt 1 discriminator 1
 377              		.loc 1 71 21 is_stmt 0 discriminator 1
 378 0290 13850400 		mv	a0,s1
 379 0294 97000000 		call	_Z12printIntegerm@plt
 379      E7800000 
 380              	.LVL52:
  72:src/workers.cpp ****         printString("\n");
 381              		.loc 1 72 9 is_stmt 1 discriminator 1
 382              		.loc 1 72 20 is_stmt 0 discriminator 1
 383 029c 17050000 		lla	a0,.LC1
 383      13050500 
 384 02a4 97000000 		call	_Z11printStringPKc@plt
 384      E7800000 
 385              	.LVL53:
  68:src/workers.cpp ****     {
 386              		.loc 1 68 5 is_stmt 1 discriminator 1
 387 02ac 9B841400 		addiw	s1,s1,1
 388              	.LVL54:
 389 02b0 93F4F40F 		andi	s1,s1,0xff
 390              	.LVL55:
 391              	.L19:
  68:src/workers.cpp ****     {
 392              		.loc 1 68 5 discriminator 2
  68:src/workers.cpp ****     {
 393              		.loc 1 68 14 discriminator 2
 394 02b4 9307F000 		li	a5,15
 395 02b8 E3F497FC 		bleu	s1,a5,.L22
  73:src/workers.cpp ****     }
  74:src/workers.cpp **** 
  75:src/workers.cpp ****     CCB::running->setFinished(true);
 396              		.loc 1 75 5
 397              		.loc 1 75 30 is_stmt 0
 398 02bc 97070000 		la	a5,_ZN3CCB7runningE
 398      83B70700 
 399 02c4 83B70700 		ld	a5,0(a5)
 400              	.LVL56:
 401              	.LBB8:
 402              	.LBB9:
 403              		.loc 2 15 36 is_stmt 1
 404              		.loc 2 15 45 is_stmt 0
 405 02c8 13071000 		li	a4,1
 406 02cc 2380E702 		sb	a4,32(a5)
 407              	.LVL57:
 408              	.LBE9:
 409              	.LBE8:
  76:src/workers.cpp ****     CCB::yield();
GAS LISTING /tmp/ccjmi8As.s 			page 11


 410              		.loc 1 76 5 is_stmt 1
 411              		.loc 1 76 15 is_stmt 0
 412 02d0 97000000 		call	_ZN3CCB5yieldEv@plt
 412      E7800000 
 413              	.LVL58:
  77:src/workers.cpp **** }...
 414              		.loc 1 77 1
 415 02d8 83308101 		ld	ra,24(sp)
 416              		.cfi_restore 1
 417 02dc 03340101 		ld	s0,16(sp)
 418              		.cfi_restore 8
 419              		.cfi_def_cfa 2, 32
 420 02e0 83348100 		ld	s1,8(sp)
 421              		.cfi_restore 9
 422              	.LVL59:
 423 02e4 03390100 		ld	s2,0(sp)
 424              		.cfi_restore 18
 425              	.LVL60:
 426 02e8 13010102 		addi	sp,sp,32
 427              		.cfi_def_cfa_offset 0
 428 02ec 67800000 		jr	ra
 429              		.cfi_endproc
 430              	.LFE18:
 432              	.Letext0:
 433              		.file 3 "src/../lib/hw.h"
 434              		.file 4 "src/../h/print.hpp"
GAS LISTING /tmp/ccjmi8As.s 			page 12

